GAS LISTING /var/folders/sh/lj4855x88xqgpw006s7bny180000gn/T//ccZ3NiRc.s 			page 1


   1               		.file	"halloween_candle.c"
   2               	__SP_H__ = 0x3e
   3               	__SP_L__ = 0x3d
   4               	__SREG__ = 0x3f
   5               	__tmp_reg__ = 0
   6               	__zero_reg__ = 1
   7               		.text
   8               	.Ltext0:
   9               		.cfi_sections	.debug_frame
  10               		.section	.text.setup,"ax",@progbits
  11               	.global	setup
  12               		.type	setup, @function
  13               	setup:
  14               	.LFB15:
  15               		.file 1 "halloween_candle.c"
   1:halloween_candle.c **** #define F_CPU 1000000UL
   2:halloween_candle.c **** 
   3:halloween_candle.c **** #include <avr/io.h>
   4:halloween_candle.c **** #include <util/delay.h>
   5:halloween_candle.c **** #include <stdlib.h>
   6:halloween_candle.c **** 
   7:halloween_candle.c **** #define LED1_PIN PB4
   8:halloween_candle.c **** #define LED2_PIN PB3
   9:halloween_candle.c **** 
  10:halloween_candle.c **** void setup(void);
  11:halloween_candle.c **** void set_led_brightness(uint8_t led1, uint8_t led2);
  12:halloween_candle.c **** void gentle_flicker(uint16_t duration);
  13:halloween_candle.c **** void enhanced_candle(uint16_t duration);
  14:halloween_candle.c **** void distant_storm(uint16_t duration);
  15:halloween_candle.c **** void custom_delay_ms(uint16_t ms);
  16:halloween_candle.c **** 
  17:halloween_candle.c **** int main(void) {
  18:halloween_candle.c ****     setup();
  19:halloween_candle.c ****     
  20:halloween_candle.c ****     // Short demo period (5 seconds each)
  21:halloween_candle.c ****    // gentle_flicker(50);    // 5 seconds
  22:halloween_candle.c ****     //enhanced_candle(50);   // 5 seconds
  23:halloween_candle.c ****     distant_storm(1000);     // 5 seconds
  24:halloween_candle.c **** 
  25:halloween_candle.c ****     // Main loop - 5 minutes each, no pause between
  26:halloween_candle.c ****     while (1) {
  27:halloween_candle.c ****         gentle_flicker(3000);   // 5 minutes (3000 * 100ms = 300000ms = 5 minutes)
  28:halloween_candle.c ****         enhanced_candle(600);  // 5 minutes
  29:halloween_candle.c ****         distant_storm(3000);    // 5 minutes
  30:halloween_candle.c ****     }
  31:halloween_candle.c **** }
  32:halloween_candle.c **** 
  33:halloween_candle.c **** void setup(void) {
  16               		.loc 1 33 18 view -0
  17               		.cfi_startproc
  18               	/* prologue: function */
  19               	/* frame size = 0 */
  20               	/* stack size = 0 */
  21               	.L__stack_usage = 0
  34:halloween_candle.c ****     DDRB |= (1 << LED1_PIN) | (1 << LED2_PIN);
  22               		.loc 1 34 5 view .LVU1
  23               		.loc 1 34 10 is_stmt 0 view .LVU2
GAS LISTING /var/folders/sh/lj4855x88xqgpw006s7bny180000gn/T//ccZ3NiRc.s 			page 2


  24 0000 87B3      		in r24,0x17
  25 0002 8861      		ori r24,lo8(24)
  26 0004 87BB      		out 0x17,r24
  35:halloween_candle.c ****     TCCR0A = (1 << COM0A1) | (1 << WGM00) | (1 << WGM01);
  27               		.loc 1 35 5 is_stmt 1 view .LVU3
  28               		.loc 1 35 12 is_stmt 0 view .LVU4
  29 0006 83E8      		ldi r24,lo8(-125)
  30 0008 8ABD      		out 0x2a,r24
  36:halloween_candle.c ****     TCCR0B = (1 << CS00);
  31               		.loc 1 36 5 is_stmt 1 view .LVU5
  32               		.loc 1 36 12 is_stmt 0 view .LVU6
  33 000a 81E0      		ldi r24,lo8(1)
  34 000c 83BF      		out 0x33,r24
  37:halloween_candle.c ****     TCCR1 = (1 << PWM1B) | (1 << COM1B0) | (1 << CS10);
  35               		.loc 1 37 5 is_stmt 1 view .LVU7
  36               		.loc 1 37 11 is_stmt 0 view .LVU8
  37 000e 81E5      		ldi r24,lo8(81)
  38 0010 80BF      		out 0x30,r24
  38:halloween_candle.c ****     GTCCR = (1 << PWM1B) | (1 << COM1B0);
  39               		.loc 1 38 5 is_stmt 1 view .LVU9
  40               		.loc 1 38 11 is_stmt 0 view .LVU10
  41 0012 80E5      		ldi r24,lo8(80)
  42 0014 8CBD      		out 0x2c,r24
  43               	/* epilogue start */
  39:halloween_candle.c **** }
  44               		.loc 1 39 1 view .LVU11
  45 0016 0895      		ret
  46               		.cfi_endproc
  47               	.LFE15:
  48               		.size	setup, .-setup
  49               		.section	.text.set_led_brightness,"ax",@progbits
  50               	.global	set_led_brightness
  51               		.type	set_led_brightness, @function
  52               	set_led_brightness:
  53               	.LVL0:
  54               	.LFB16:
  40:halloween_candle.c **** 
  41:halloween_candle.c **** void set_led_brightness(uint8_t led1, uint8_t led2) {
  55               		.loc 1 41 53 is_stmt 1 view -0
  56               		.cfi_startproc
  57               	/* prologue: function */
  58               	/* frame size = 0 */
  59               	/* stack size = 0 */
  60               	.L__stack_usage = 0
  42:halloween_candle.c ****     OCR0A = led1;
  61               		.loc 1 42 5 view .LVU13
  62               		.loc 1 42 11 is_stmt 0 view .LVU14
  63 0000 89BD      		out 0x29,r24
  43:halloween_candle.c ****     OCR1B = led2;
  64               		.loc 1 43 5 is_stmt 1 view .LVU15
  65               		.loc 1 43 11 is_stmt 0 view .LVU16
  66 0002 6BBD      		out 0x2b,r22
  67               	/* epilogue start */
  44:halloween_candle.c **** }
  68               		.loc 1 44 1 view .LVU17
  69 0004 0895      		ret
  70               		.cfi_endproc
GAS LISTING /var/folders/sh/lj4855x88xqgpw006s7bny180000gn/T//ccZ3NiRc.s 			page 3


  71               	.LFE16:
  72               		.size	set_led_brightness, .-set_led_brightness
  73               		.section	.text.custom_delay_ms,"ax",@progbits
  74               	.global	custom_delay_ms
  75               		.type	custom_delay_ms, @function
  76               	custom_delay_ms:
  77               	.LVL1:
  78               	.LFB17:
  45:halloween_candle.c **** 
  46:halloween_candle.c **** void custom_delay_ms(uint16_t ms) {
  79               		.loc 1 46 35 is_stmt 1 view -0
  80               		.cfi_startproc
  81               	/* prologue: function */
  82               	/* frame size = 0 */
  83               	/* stack size = 0 */
  84               	.L__stack_usage = 0
  85               		.loc 1 46 35 is_stmt 0 view .LVU19
  86 0000 9C01      		movw r18,r24
  47:halloween_candle.c ****     while (ms--) {
  87               		.loc 1 47 5 is_stmt 1 view .LVU20
  88               	.LVL2:
  89               	.L4:
  90               		.loc 1 47 11 view .LVU21
  91               		.loc 1 47 14 is_stmt 0 view .LVU22
  92               	.LVL3:
  93 0002 2150      		subi r18,1
  94 0004 3109      		sbc r19,__zero_reg__
  95 0006 00F4      		brcc .L5
  96               	/* epilogue start */
  48:halloween_candle.c ****         _delay_ms(1);
  49:halloween_candle.c ****     }
  50:halloween_candle.c **** }
  97               		.loc 1 50 1 view .LVU23
  98 0008 0895      		ret
  99               	.L5:
  48:halloween_candle.c ****         _delay_ms(1);
 100               		.loc 1 48 9 is_stmt 1 view .LVU24
 101               	.LVL4:
 102               	.LBB21:
 103               	.LBI21:
 104               		.file 2 "/usr/local/Cellar/avr-gcc@9/9.4.0_1/avr/include/util/delay.h"
   1:/usr/local/Cellar/avr-gcc@9/9.4.0_1/avr/include/util/delay.h **** /* Copyright (c) 2002, Marek Michalkiewicz
   2:/usr/local/Cellar/avr-gcc@9/9.4.0_1/avr/include/util/delay.h ****    Copyright (c) 2004,2005,2007 Joerg Wunsch
   3:/usr/local/Cellar/avr-gcc@9/9.4.0_1/avr/include/util/delay.h ****    Copyright (c) 2007  Florin-Viorel Petrov
   4:/usr/local/Cellar/avr-gcc@9/9.4.0_1/avr/include/util/delay.h ****    All rights reserved.
   5:/usr/local/Cellar/avr-gcc@9/9.4.0_1/avr/include/util/delay.h **** 
   6:/usr/local/Cellar/avr-gcc@9/9.4.0_1/avr/include/util/delay.h ****    Redistribution and use in source and binary forms, with or without
   7:/usr/local/Cellar/avr-gcc@9/9.4.0_1/avr/include/util/delay.h ****    modification, are permitted provided that the following conditions are met:
   8:/usr/local/Cellar/avr-gcc@9/9.4.0_1/avr/include/util/delay.h **** 
   9:/usr/local/Cellar/avr-gcc@9/9.4.0_1/avr/include/util/delay.h ****    * Redistributions of source code must retain the above copyright
  10:/usr/local/Cellar/avr-gcc@9/9.4.0_1/avr/include/util/delay.h ****      notice, this list of conditions and the following disclaimer.
  11:/usr/local/Cellar/avr-gcc@9/9.4.0_1/avr/include/util/delay.h **** 
  12:/usr/local/Cellar/avr-gcc@9/9.4.0_1/avr/include/util/delay.h ****    * Redistributions in binary form must reproduce the above copyright
  13:/usr/local/Cellar/avr-gcc@9/9.4.0_1/avr/include/util/delay.h ****      notice, this list of conditions and the following disclaimer in
  14:/usr/local/Cellar/avr-gcc@9/9.4.0_1/avr/include/util/delay.h ****      the documentation and/or other materials provided with the
  15:/usr/local/Cellar/avr-gcc@9/9.4.0_1/avr/include/util/delay.h ****      distribution.
  16:/usr/local/Cellar/avr-gcc@9/9.4.0_1/avr/include/util/delay.h **** 
GAS LISTING /var/folders/sh/lj4855x88xqgpw006s7bny180000gn/T//ccZ3NiRc.s 			page 4


  17:/usr/local/Cellar/avr-gcc@9/9.4.0_1/avr/include/util/delay.h ****    * Neither the name of the copyright holders nor the names of
  18:/usr/local/Cellar/avr-gcc@9/9.4.0_1/avr/include/util/delay.h ****      contributors may be used to endorse or promote products derived
  19:/usr/local/Cellar/avr-gcc@9/9.4.0_1/avr/include/util/delay.h ****      from this software without specific prior written permission.
  20:/usr/local/Cellar/avr-gcc@9/9.4.0_1/avr/include/util/delay.h **** 
  21:/usr/local/Cellar/avr-gcc@9/9.4.0_1/avr/include/util/delay.h ****   THIS SOFTWARE IS PROVIDED BY THE COPYRIGHT HOLDERS AND CONTRIBUTORS "AS IS"
  22:/usr/local/Cellar/avr-gcc@9/9.4.0_1/avr/include/util/delay.h ****   AND ANY EXPRESS OR IMPLIED WARRANTIES, INCLUDING, BUT NOT LIMITED TO, THE
  23:/usr/local/Cellar/avr-gcc@9/9.4.0_1/avr/include/util/delay.h ****   IMPLIED WARRANTIES OF MERCHANTABILITY AND FITNESS FOR A PARTICULAR PURPOSE
  24:/usr/local/Cellar/avr-gcc@9/9.4.0_1/avr/include/util/delay.h ****   ARE DISCLAIMED. IN NO EVENT SHALL THE COPYRIGHT OWNER OR CONTRIBUTORS BE
  25:/usr/local/Cellar/avr-gcc@9/9.4.0_1/avr/include/util/delay.h ****   LIABLE FOR ANY DIRECT, INDIRECT, INCIDENTAL, SPECIAL, EXEMPLARY, OR
  26:/usr/local/Cellar/avr-gcc@9/9.4.0_1/avr/include/util/delay.h ****   CONSEQUENTIAL DAMAGES (INCLUDING, BUT NOT LIMITED TO, PROCUREMENT OF
  27:/usr/local/Cellar/avr-gcc@9/9.4.0_1/avr/include/util/delay.h ****   SUBSTITUTE GOODS OR SERVICES; LOSS OF USE, DATA, OR PROFITS; OR BUSINESS
  28:/usr/local/Cellar/avr-gcc@9/9.4.0_1/avr/include/util/delay.h ****   INTERRUPTION) HOWEVER CAUSED AND ON ANY THEORY OF LIABILITY, WHETHER IN
  29:/usr/local/Cellar/avr-gcc@9/9.4.0_1/avr/include/util/delay.h ****   CONTRACT, STRICT LIABILITY, OR TORT (INCLUDING NEGLIGENCE OR OTHERWISE)
  30:/usr/local/Cellar/avr-gcc@9/9.4.0_1/avr/include/util/delay.h ****   ARISING IN ANY WAY OUT OF THE USE OF THIS SOFTWARE, EVEN IF ADVISED OF THE
  31:/usr/local/Cellar/avr-gcc@9/9.4.0_1/avr/include/util/delay.h ****   POSSIBILITY OF SUCH DAMAGE. */
  32:/usr/local/Cellar/avr-gcc@9/9.4.0_1/avr/include/util/delay.h **** 
  33:/usr/local/Cellar/avr-gcc@9/9.4.0_1/avr/include/util/delay.h **** /* $Id: delay.h.in 2551 2020-10-10 20:33:35Z joerg_wunsch $ */
  34:/usr/local/Cellar/avr-gcc@9/9.4.0_1/avr/include/util/delay.h **** 
  35:/usr/local/Cellar/avr-gcc@9/9.4.0_1/avr/include/util/delay.h **** #ifndef _UTIL_DELAY_H_
  36:/usr/local/Cellar/avr-gcc@9/9.4.0_1/avr/include/util/delay.h **** #define _UTIL_DELAY_H_ 1
  37:/usr/local/Cellar/avr-gcc@9/9.4.0_1/avr/include/util/delay.h **** 
  38:/usr/local/Cellar/avr-gcc@9/9.4.0_1/avr/include/util/delay.h **** #ifndef __DOXYGEN__
  39:/usr/local/Cellar/avr-gcc@9/9.4.0_1/avr/include/util/delay.h **** #  ifndef __HAS_DELAY_CYCLES
  40:/usr/local/Cellar/avr-gcc@9/9.4.0_1/avr/include/util/delay.h **** #    define __HAS_DELAY_CYCLES 1
  41:/usr/local/Cellar/avr-gcc@9/9.4.0_1/avr/include/util/delay.h **** #  endif
  42:/usr/local/Cellar/avr-gcc@9/9.4.0_1/avr/include/util/delay.h **** #endif  /* __DOXYGEN__ */
  43:/usr/local/Cellar/avr-gcc@9/9.4.0_1/avr/include/util/delay.h **** 
  44:/usr/local/Cellar/avr-gcc@9/9.4.0_1/avr/include/util/delay.h **** #include <inttypes.h>
  45:/usr/local/Cellar/avr-gcc@9/9.4.0_1/avr/include/util/delay.h **** #include <util/delay_basic.h>
  46:/usr/local/Cellar/avr-gcc@9/9.4.0_1/avr/include/util/delay.h **** #include <math.h>
  47:/usr/local/Cellar/avr-gcc@9/9.4.0_1/avr/include/util/delay.h **** 
  48:/usr/local/Cellar/avr-gcc@9/9.4.0_1/avr/include/util/delay.h **** /** \file */
  49:/usr/local/Cellar/avr-gcc@9/9.4.0_1/avr/include/util/delay.h **** /** \defgroup util_delay <util/delay.h>: Convenience functions for busy-wait delay loops
  50:/usr/local/Cellar/avr-gcc@9/9.4.0_1/avr/include/util/delay.h ****     \code
  51:/usr/local/Cellar/avr-gcc@9/9.4.0_1/avr/include/util/delay.h ****     #define F_CPU 1000000UL  // 1 MHz
  52:/usr/local/Cellar/avr-gcc@9/9.4.0_1/avr/include/util/delay.h ****     //#define F_CPU 14.7456E6
  53:/usr/local/Cellar/avr-gcc@9/9.4.0_1/avr/include/util/delay.h ****     #include <util/delay.h>
  54:/usr/local/Cellar/avr-gcc@9/9.4.0_1/avr/include/util/delay.h ****     \endcode
  55:/usr/local/Cellar/avr-gcc@9/9.4.0_1/avr/include/util/delay.h **** 
  56:/usr/local/Cellar/avr-gcc@9/9.4.0_1/avr/include/util/delay.h ****     \note As an alternative method, it is possible to pass the
  57:/usr/local/Cellar/avr-gcc@9/9.4.0_1/avr/include/util/delay.h ****     F_CPU macro down to the compiler from the Makefile.
  58:/usr/local/Cellar/avr-gcc@9/9.4.0_1/avr/include/util/delay.h ****     Obviously, in that case, no \c \#define statement should be
  59:/usr/local/Cellar/avr-gcc@9/9.4.0_1/avr/include/util/delay.h ****     used.
  60:/usr/local/Cellar/avr-gcc@9/9.4.0_1/avr/include/util/delay.h **** 
  61:/usr/local/Cellar/avr-gcc@9/9.4.0_1/avr/include/util/delay.h ****     The functions in this header file are wrappers around the basic
  62:/usr/local/Cellar/avr-gcc@9/9.4.0_1/avr/include/util/delay.h ****     busy-wait functions from <util/delay_basic.h>.  They are meant as
  63:/usr/local/Cellar/avr-gcc@9/9.4.0_1/avr/include/util/delay.h ****     convenience functions where actual time values can be specified
  64:/usr/local/Cellar/avr-gcc@9/9.4.0_1/avr/include/util/delay.h ****     rather than a number of cycles to wait for.  The idea behind is
  65:/usr/local/Cellar/avr-gcc@9/9.4.0_1/avr/include/util/delay.h ****     that compile-time constant expressions will be eliminated by
  66:/usr/local/Cellar/avr-gcc@9/9.4.0_1/avr/include/util/delay.h ****     compiler optimization so floating-point expressions can be used
  67:/usr/local/Cellar/avr-gcc@9/9.4.0_1/avr/include/util/delay.h ****     to calculate the number of delay cycles needed based on the CPU
  68:/usr/local/Cellar/avr-gcc@9/9.4.0_1/avr/include/util/delay.h ****     frequency passed by the macro F_CPU.
  69:/usr/local/Cellar/avr-gcc@9/9.4.0_1/avr/include/util/delay.h **** 
  70:/usr/local/Cellar/avr-gcc@9/9.4.0_1/avr/include/util/delay.h ****     \note In order for these functions to work as intended, compiler
  71:/usr/local/Cellar/avr-gcc@9/9.4.0_1/avr/include/util/delay.h ****     optimizations <em>must</em> be enabled, and the delay time
  72:/usr/local/Cellar/avr-gcc@9/9.4.0_1/avr/include/util/delay.h ****     <em>must</em> be an expression that is a known constant at
  73:/usr/local/Cellar/avr-gcc@9/9.4.0_1/avr/include/util/delay.h ****     compile-time.  If these requirements are not met, the resulting
GAS LISTING /var/folders/sh/lj4855x88xqgpw006s7bny180000gn/T//ccZ3NiRc.s 			page 5


  74:/usr/local/Cellar/avr-gcc@9/9.4.0_1/avr/include/util/delay.h ****     delay will be much longer (and basically unpredictable), and
  75:/usr/local/Cellar/avr-gcc@9/9.4.0_1/avr/include/util/delay.h ****     applications that otherwise do not use floating-point calculations
  76:/usr/local/Cellar/avr-gcc@9/9.4.0_1/avr/include/util/delay.h ****     will experience severe code bloat by the floating-point library
  77:/usr/local/Cellar/avr-gcc@9/9.4.0_1/avr/include/util/delay.h ****     routines linked into the application.
  78:/usr/local/Cellar/avr-gcc@9/9.4.0_1/avr/include/util/delay.h **** 
  79:/usr/local/Cellar/avr-gcc@9/9.4.0_1/avr/include/util/delay.h ****     The functions available allow the specification of microsecond, and
  80:/usr/local/Cellar/avr-gcc@9/9.4.0_1/avr/include/util/delay.h ****     millisecond delays directly, using the application-supplied macro
  81:/usr/local/Cellar/avr-gcc@9/9.4.0_1/avr/include/util/delay.h ****     F_CPU as the CPU clock frequency (in Hertz).
  82:/usr/local/Cellar/avr-gcc@9/9.4.0_1/avr/include/util/delay.h **** 
  83:/usr/local/Cellar/avr-gcc@9/9.4.0_1/avr/include/util/delay.h **** */
  84:/usr/local/Cellar/avr-gcc@9/9.4.0_1/avr/include/util/delay.h **** 
  85:/usr/local/Cellar/avr-gcc@9/9.4.0_1/avr/include/util/delay.h **** #if !defined(__DOXYGEN__)
  86:/usr/local/Cellar/avr-gcc@9/9.4.0_1/avr/include/util/delay.h **** static __inline__ void _delay_us(double __us) __attribute__((__always_inline__));
  87:/usr/local/Cellar/avr-gcc@9/9.4.0_1/avr/include/util/delay.h **** static __inline__ void _delay_ms(double __ms) __attribute__((__always_inline__));
  88:/usr/local/Cellar/avr-gcc@9/9.4.0_1/avr/include/util/delay.h **** #endif
  89:/usr/local/Cellar/avr-gcc@9/9.4.0_1/avr/include/util/delay.h **** 
  90:/usr/local/Cellar/avr-gcc@9/9.4.0_1/avr/include/util/delay.h **** #ifndef F_CPU
  91:/usr/local/Cellar/avr-gcc@9/9.4.0_1/avr/include/util/delay.h **** /* prevent compiler error by supplying a default */
  92:/usr/local/Cellar/avr-gcc@9/9.4.0_1/avr/include/util/delay.h **** # warning "F_CPU not defined for <util/delay.h>"
  93:/usr/local/Cellar/avr-gcc@9/9.4.0_1/avr/include/util/delay.h **** /** \ingroup util_delay
  94:/usr/local/Cellar/avr-gcc@9/9.4.0_1/avr/include/util/delay.h ****     \def F_CPU
  95:/usr/local/Cellar/avr-gcc@9/9.4.0_1/avr/include/util/delay.h ****     \brief CPU frequency in Hz
  96:/usr/local/Cellar/avr-gcc@9/9.4.0_1/avr/include/util/delay.h **** 
  97:/usr/local/Cellar/avr-gcc@9/9.4.0_1/avr/include/util/delay.h ****     The macro F_CPU specifies the CPU frequency to be considered by
  98:/usr/local/Cellar/avr-gcc@9/9.4.0_1/avr/include/util/delay.h ****     the delay macros.  This macro is normally supplied by the
  99:/usr/local/Cellar/avr-gcc@9/9.4.0_1/avr/include/util/delay.h ****     environment (e.g. from within a project header, or the project's
 100:/usr/local/Cellar/avr-gcc@9/9.4.0_1/avr/include/util/delay.h ****     Makefile).  The value 1 MHz here is only provided as a "vanilla"
 101:/usr/local/Cellar/avr-gcc@9/9.4.0_1/avr/include/util/delay.h ****     fallback if no such user-provided definition could be found.
 102:/usr/local/Cellar/avr-gcc@9/9.4.0_1/avr/include/util/delay.h **** 
 103:/usr/local/Cellar/avr-gcc@9/9.4.0_1/avr/include/util/delay.h ****     In terms of the delay functions, the CPU frequency can be given as
 104:/usr/local/Cellar/avr-gcc@9/9.4.0_1/avr/include/util/delay.h ****     a floating-point constant (e.g. 3.6864E6 for 3.6864 MHz).
 105:/usr/local/Cellar/avr-gcc@9/9.4.0_1/avr/include/util/delay.h ****     However, the macros in <util/setbaud.h> require it to be an
 106:/usr/local/Cellar/avr-gcc@9/9.4.0_1/avr/include/util/delay.h ****     integer value.
 107:/usr/local/Cellar/avr-gcc@9/9.4.0_1/avr/include/util/delay.h ****  */
 108:/usr/local/Cellar/avr-gcc@9/9.4.0_1/avr/include/util/delay.h **** # define F_CPU 1000000UL
 109:/usr/local/Cellar/avr-gcc@9/9.4.0_1/avr/include/util/delay.h **** #endif
 110:/usr/local/Cellar/avr-gcc@9/9.4.0_1/avr/include/util/delay.h **** 
 111:/usr/local/Cellar/avr-gcc@9/9.4.0_1/avr/include/util/delay.h **** #ifndef __OPTIMIZE__
 112:/usr/local/Cellar/avr-gcc@9/9.4.0_1/avr/include/util/delay.h **** # warning "Compiler optimizations disabled; functions from <util/delay.h> won't work as designed"
 113:/usr/local/Cellar/avr-gcc@9/9.4.0_1/avr/include/util/delay.h **** #endif
 114:/usr/local/Cellar/avr-gcc@9/9.4.0_1/avr/include/util/delay.h **** 
 115:/usr/local/Cellar/avr-gcc@9/9.4.0_1/avr/include/util/delay.h **** #if __HAS_DELAY_CYCLES && defined(__OPTIMIZE__) && \
 116:/usr/local/Cellar/avr-gcc@9/9.4.0_1/avr/include/util/delay.h ****   !defined(__DELAY_BACKWARD_COMPATIBLE__) &&	   \
 117:/usr/local/Cellar/avr-gcc@9/9.4.0_1/avr/include/util/delay.h ****   __STDC_HOSTED__
 118:/usr/local/Cellar/avr-gcc@9/9.4.0_1/avr/include/util/delay.h **** #  include <math.h>
 119:/usr/local/Cellar/avr-gcc@9/9.4.0_1/avr/include/util/delay.h **** #endif
 120:/usr/local/Cellar/avr-gcc@9/9.4.0_1/avr/include/util/delay.h **** 
 121:/usr/local/Cellar/avr-gcc@9/9.4.0_1/avr/include/util/delay.h **** /**
 122:/usr/local/Cellar/avr-gcc@9/9.4.0_1/avr/include/util/delay.h ****    \ingroup util_delay
 123:/usr/local/Cellar/avr-gcc@9/9.4.0_1/avr/include/util/delay.h **** 
 124:/usr/local/Cellar/avr-gcc@9/9.4.0_1/avr/include/util/delay.h ****    Perform a delay of \c __ms milliseconds, using _delay_loop_2().
 125:/usr/local/Cellar/avr-gcc@9/9.4.0_1/avr/include/util/delay.h **** 
 126:/usr/local/Cellar/avr-gcc@9/9.4.0_1/avr/include/util/delay.h ****    The macro F_CPU is supposed to be defined to a
 127:/usr/local/Cellar/avr-gcc@9/9.4.0_1/avr/include/util/delay.h ****    constant defining the CPU clock frequency (in Hertz).
 128:/usr/local/Cellar/avr-gcc@9/9.4.0_1/avr/include/util/delay.h **** 
 129:/usr/local/Cellar/avr-gcc@9/9.4.0_1/avr/include/util/delay.h ****    The maximal possible delay is 262.14 ms / F_CPU in MHz.
 130:/usr/local/Cellar/avr-gcc@9/9.4.0_1/avr/include/util/delay.h **** 
GAS LISTING /var/folders/sh/lj4855x88xqgpw006s7bny180000gn/T//ccZ3NiRc.s 			page 6


 131:/usr/local/Cellar/avr-gcc@9/9.4.0_1/avr/include/util/delay.h ****    When the user request delay which exceed the maximum possible one,
 132:/usr/local/Cellar/avr-gcc@9/9.4.0_1/avr/include/util/delay.h ****    _delay_ms() provides a decreased resolution functionality. In this
 133:/usr/local/Cellar/avr-gcc@9/9.4.0_1/avr/include/util/delay.h ****    mode _delay_ms() will work with a resolution of 1/10 ms, providing
 134:/usr/local/Cellar/avr-gcc@9/9.4.0_1/avr/include/util/delay.h ****    delays up to 6.5535 seconds (independent from CPU frequency).  The
 135:/usr/local/Cellar/avr-gcc@9/9.4.0_1/avr/include/util/delay.h ****    user will not be informed about decreased resolution.
 136:/usr/local/Cellar/avr-gcc@9/9.4.0_1/avr/include/util/delay.h **** 
 137:/usr/local/Cellar/avr-gcc@9/9.4.0_1/avr/include/util/delay.h ****    If the avr-gcc toolchain has __builtin_avr_delay_cycles()
 138:/usr/local/Cellar/avr-gcc@9/9.4.0_1/avr/include/util/delay.h ****    support, maximal possible delay is 4294967.295 ms/ F_CPU in MHz. For
 139:/usr/local/Cellar/avr-gcc@9/9.4.0_1/avr/include/util/delay.h ****    values greater than the maximal possible delay, overflows results in
 140:/usr/local/Cellar/avr-gcc@9/9.4.0_1/avr/include/util/delay.h ****    no delay i.e., 0ms.
 141:/usr/local/Cellar/avr-gcc@9/9.4.0_1/avr/include/util/delay.h **** 
 142:/usr/local/Cellar/avr-gcc@9/9.4.0_1/avr/include/util/delay.h ****    Conversion of \c __ms into clock cycles may not always result in
 143:/usr/local/Cellar/avr-gcc@9/9.4.0_1/avr/include/util/delay.h ****    integer.  By default, the clock cycles rounded up to next
 144:/usr/local/Cellar/avr-gcc@9/9.4.0_1/avr/include/util/delay.h ****    integer. This ensures that the user gets at least \c __ms
 145:/usr/local/Cellar/avr-gcc@9/9.4.0_1/avr/include/util/delay.h ****    microseconds of delay.
 146:/usr/local/Cellar/avr-gcc@9/9.4.0_1/avr/include/util/delay.h **** 
 147:/usr/local/Cellar/avr-gcc@9/9.4.0_1/avr/include/util/delay.h ****    Alternatively, by defining the macro \c __DELAY_ROUND_DOWN__, or
 148:/usr/local/Cellar/avr-gcc@9/9.4.0_1/avr/include/util/delay.h ****    \c __DELAY_ROUND_CLOSEST__, before including this header file, the
 149:/usr/local/Cellar/avr-gcc@9/9.4.0_1/avr/include/util/delay.h ****    algorithm can be made to round down, or round to closest integer,
 150:/usr/local/Cellar/avr-gcc@9/9.4.0_1/avr/include/util/delay.h ****    respectively.
 151:/usr/local/Cellar/avr-gcc@9/9.4.0_1/avr/include/util/delay.h **** 
 152:/usr/local/Cellar/avr-gcc@9/9.4.0_1/avr/include/util/delay.h ****    \note
 153:/usr/local/Cellar/avr-gcc@9/9.4.0_1/avr/include/util/delay.h **** 
 154:/usr/local/Cellar/avr-gcc@9/9.4.0_1/avr/include/util/delay.h ****    The implementation of _delay_ms() based on
 155:/usr/local/Cellar/avr-gcc@9/9.4.0_1/avr/include/util/delay.h ****    __builtin_avr_delay_cycles() is not backward compatible with older
 156:/usr/local/Cellar/avr-gcc@9/9.4.0_1/avr/include/util/delay.h ****    implementations.  In order to get functionality backward compatible
 157:/usr/local/Cellar/avr-gcc@9/9.4.0_1/avr/include/util/delay.h ****    with previous versions, the macro \c "__DELAY_BACKWARD_COMPATIBLE__"
 158:/usr/local/Cellar/avr-gcc@9/9.4.0_1/avr/include/util/delay.h ****    must be defined before including this header file. Also, the
 159:/usr/local/Cellar/avr-gcc@9/9.4.0_1/avr/include/util/delay.h ****    backward compatible algorithm will be chosen if the code is
 160:/usr/local/Cellar/avr-gcc@9/9.4.0_1/avr/include/util/delay.h ****    compiled in a <em>freestanding environment</em> (GCC option
 161:/usr/local/Cellar/avr-gcc@9/9.4.0_1/avr/include/util/delay.h ****    \c -ffreestanding), as the math functions required for rounding are
 162:/usr/local/Cellar/avr-gcc@9/9.4.0_1/avr/include/util/delay.h ****    not available to the compiler then.
 163:/usr/local/Cellar/avr-gcc@9/9.4.0_1/avr/include/util/delay.h **** 
 164:/usr/local/Cellar/avr-gcc@9/9.4.0_1/avr/include/util/delay.h ****  */
 165:/usr/local/Cellar/avr-gcc@9/9.4.0_1/avr/include/util/delay.h **** void
 166:/usr/local/Cellar/avr-gcc@9/9.4.0_1/avr/include/util/delay.h **** _delay_ms(double __ms)
 105               		.loc 2 166 1 view .LVU25
 106               	.LBB22:
 167:/usr/local/Cellar/avr-gcc@9/9.4.0_1/avr/include/util/delay.h **** {
 168:/usr/local/Cellar/avr-gcc@9/9.4.0_1/avr/include/util/delay.h **** 	double __tmp ;
 107               		.loc 2 168 2 view .LVU26
 169:/usr/local/Cellar/avr-gcc@9/9.4.0_1/avr/include/util/delay.h **** #if __HAS_DELAY_CYCLES && defined(__OPTIMIZE__) && \
 170:/usr/local/Cellar/avr-gcc@9/9.4.0_1/avr/include/util/delay.h ****   !defined(__DELAY_BACKWARD_COMPATIBLE__) &&	   \
 171:/usr/local/Cellar/avr-gcc@9/9.4.0_1/avr/include/util/delay.h ****   __STDC_HOSTED__
 172:/usr/local/Cellar/avr-gcc@9/9.4.0_1/avr/include/util/delay.h **** 	uint32_t __ticks_dc;
 108               		.loc 2 172 2 view .LVU27
 173:/usr/local/Cellar/avr-gcc@9/9.4.0_1/avr/include/util/delay.h **** 	extern void __builtin_avr_delay_cycles(unsigned long);
 109               		.loc 2 173 2 view .LVU28
 174:/usr/local/Cellar/avr-gcc@9/9.4.0_1/avr/include/util/delay.h **** 	__tmp = ((F_CPU) / 1e3) * __ms;
 110               		.loc 2 174 2 view .LVU29
 175:/usr/local/Cellar/avr-gcc@9/9.4.0_1/avr/include/util/delay.h **** 
 176:/usr/local/Cellar/avr-gcc@9/9.4.0_1/avr/include/util/delay.h **** 	#if defined(__DELAY_ROUND_DOWN__)
 177:/usr/local/Cellar/avr-gcc@9/9.4.0_1/avr/include/util/delay.h **** 		__ticks_dc = (uint32_t)fabs(__tmp);
 178:/usr/local/Cellar/avr-gcc@9/9.4.0_1/avr/include/util/delay.h **** 
 179:/usr/local/Cellar/avr-gcc@9/9.4.0_1/avr/include/util/delay.h **** 	#elif defined(__DELAY_ROUND_CLOSEST__)
 180:/usr/local/Cellar/avr-gcc@9/9.4.0_1/avr/include/util/delay.h **** 		__ticks_dc = (uint32_t)(fabs(__tmp)+0.5);
 181:/usr/local/Cellar/avr-gcc@9/9.4.0_1/avr/include/util/delay.h **** 
GAS LISTING /var/folders/sh/lj4855x88xqgpw006s7bny180000gn/T//ccZ3NiRc.s 			page 7


 182:/usr/local/Cellar/avr-gcc@9/9.4.0_1/avr/include/util/delay.h **** 	#else
 183:/usr/local/Cellar/avr-gcc@9/9.4.0_1/avr/include/util/delay.h **** 		//round up by default
 184:/usr/local/Cellar/avr-gcc@9/9.4.0_1/avr/include/util/delay.h **** 		__ticks_dc = (uint32_t)(ceil(fabs(__tmp)));
 111               		.loc 2 184 3 view .LVU30
 112               		.loc 2 184 3 is_stmt 0 view .LVU31
 113               	.LBE22:
 114               	.LBE21:
 115               		.file 3 "/usr/local/Cellar/avr-gcc@9/9.4.0_1/avr/include/math.h"
   1:/usr/local/Cellar/avr-gcc@9/9.4.0_1/avr/include/math.h **** /* Copyright (c) 2002,2007-2009 Michael Stumpf
   2:/usr/local/Cellar/avr-gcc@9/9.4.0_1/avr/include/math.h **** 
   3:/usr/local/Cellar/avr-gcc@9/9.4.0_1/avr/include/math.h ****    Portions of documentation Copyright (c) 1990 - 1994
   4:/usr/local/Cellar/avr-gcc@9/9.4.0_1/avr/include/math.h ****    The Regents of the University of California.
   5:/usr/local/Cellar/avr-gcc@9/9.4.0_1/avr/include/math.h **** 
   6:/usr/local/Cellar/avr-gcc@9/9.4.0_1/avr/include/math.h ****    All rights reserved.
   7:/usr/local/Cellar/avr-gcc@9/9.4.0_1/avr/include/math.h **** 
   8:/usr/local/Cellar/avr-gcc@9/9.4.0_1/avr/include/math.h ****    Redistribution and use in source and binary forms, with or without
   9:/usr/local/Cellar/avr-gcc@9/9.4.0_1/avr/include/math.h ****    modification, are permitted provided that the following conditions are met:
  10:/usr/local/Cellar/avr-gcc@9/9.4.0_1/avr/include/math.h **** 
  11:/usr/local/Cellar/avr-gcc@9/9.4.0_1/avr/include/math.h ****    * Redistributions of source code must retain the above copyright
  12:/usr/local/Cellar/avr-gcc@9/9.4.0_1/avr/include/math.h ****      notice, this list of conditions and the following disclaimer.
  13:/usr/local/Cellar/avr-gcc@9/9.4.0_1/avr/include/math.h **** 
  14:/usr/local/Cellar/avr-gcc@9/9.4.0_1/avr/include/math.h ****    * Redistributions in binary form must reproduce the above copyright
  15:/usr/local/Cellar/avr-gcc@9/9.4.0_1/avr/include/math.h ****      notice, this list of conditions and the following disclaimer in
  16:/usr/local/Cellar/avr-gcc@9/9.4.0_1/avr/include/math.h ****      the documentation and/or other materials provided with the
  17:/usr/local/Cellar/avr-gcc@9/9.4.0_1/avr/include/math.h ****      distribution.
  18:/usr/local/Cellar/avr-gcc@9/9.4.0_1/avr/include/math.h **** 
  19:/usr/local/Cellar/avr-gcc@9/9.4.0_1/avr/include/math.h ****    * Neither the name of the copyright holders nor the names of
  20:/usr/local/Cellar/avr-gcc@9/9.4.0_1/avr/include/math.h ****      contributors may be used to endorse or promote products derived
  21:/usr/local/Cellar/avr-gcc@9/9.4.0_1/avr/include/math.h ****      from this software without specific prior written permission.
  22:/usr/local/Cellar/avr-gcc@9/9.4.0_1/avr/include/math.h **** 
  23:/usr/local/Cellar/avr-gcc@9/9.4.0_1/avr/include/math.h ****   THIS SOFTWARE IS PROVIDED BY THE COPYRIGHT HOLDERS AND CONTRIBUTORS "AS IS"
  24:/usr/local/Cellar/avr-gcc@9/9.4.0_1/avr/include/math.h ****   AND ANY EXPRESS OR IMPLIED WARRANTIES, INCLUDING, BUT NOT LIMITED TO, THE
  25:/usr/local/Cellar/avr-gcc@9/9.4.0_1/avr/include/math.h ****   IMPLIED WARRANTIES OF MERCHANTABILITY AND FITNESS FOR A PARTICULAR PURPOSE
  26:/usr/local/Cellar/avr-gcc@9/9.4.0_1/avr/include/math.h ****   ARE DISCLAIMED. IN NO EVENT SHALL THE COPYRIGHT OWNER OR CONTRIBUTORS BE
  27:/usr/local/Cellar/avr-gcc@9/9.4.0_1/avr/include/math.h ****   LIABLE FOR ANY DIRECT, INDIRECT, INCIDENTAL, SPECIAL, EXEMPLARY, OR
  28:/usr/local/Cellar/avr-gcc@9/9.4.0_1/avr/include/math.h ****   CONSEQUENTIAL DAMAGES (INCLUDING, BUT NOT LIMITED TO, PROCUREMENT OF
  29:/usr/local/Cellar/avr-gcc@9/9.4.0_1/avr/include/math.h ****   SUBSTITUTE GOODS OR SERVICES; LOSS OF USE, DATA, OR PROFITS; OR BUSINESS
  30:/usr/local/Cellar/avr-gcc@9/9.4.0_1/avr/include/math.h ****   INTERRUPTION) HOWEVER CAUSED AND ON ANY THEORY OF LIABILITY, WHETHER IN
  31:/usr/local/Cellar/avr-gcc@9/9.4.0_1/avr/include/math.h ****   CONTRACT, STRICT LIABILITY, OR TORT (INCLUDING NEGLIGENCE OR OTHERWISE)
  32:/usr/local/Cellar/avr-gcc@9/9.4.0_1/avr/include/math.h ****   ARISING IN ANY WAY OUT OF THE USE OF THIS SOFTWARE, EVEN IF ADVISED OF THE
  33:/usr/local/Cellar/avr-gcc@9/9.4.0_1/avr/include/math.h ****   POSSIBILITY OF SUCH DAMAGE. */
  34:/usr/local/Cellar/avr-gcc@9/9.4.0_1/avr/include/math.h **** 
  35:/usr/local/Cellar/avr-gcc@9/9.4.0_1/avr/include/math.h **** /* $Id: math.h 2554 2021-05-20 22:22:24Z joerg_wunsch $ */
  36:/usr/local/Cellar/avr-gcc@9/9.4.0_1/avr/include/math.h **** 
  37:/usr/local/Cellar/avr-gcc@9/9.4.0_1/avr/include/math.h **** /*
  38:/usr/local/Cellar/avr-gcc@9/9.4.0_1/avr/include/math.h ****    math.h - mathematical functions
  39:/usr/local/Cellar/avr-gcc@9/9.4.0_1/avr/include/math.h **** 
  40:/usr/local/Cellar/avr-gcc@9/9.4.0_1/avr/include/math.h ****    Author : Michael Stumpf
  41:/usr/local/Cellar/avr-gcc@9/9.4.0_1/avr/include/math.h ****             Michael.Stumpf@t-online.de
  42:/usr/local/Cellar/avr-gcc@9/9.4.0_1/avr/include/math.h **** 
  43:/usr/local/Cellar/avr-gcc@9/9.4.0_1/avr/include/math.h ****    __ATTR_CONST__ added by marekm@linux.org.pl for functions
  44:/usr/local/Cellar/avr-gcc@9/9.4.0_1/avr/include/math.h ****    that "do not examine any values except their arguments, and have
  45:/usr/local/Cellar/avr-gcc@9/9.4.0_1/avr/include/math.h ****    no effects except the return value", for better optimization by gcc.
  46:/usr/local/Cellar/avr-gcc@9/9.4.0_1/avr/include/math.h ****  */
  47:/usr/local/Cellar/avr-gcc@9/9.4.0_1/avr/include/math.h **** 
  48:/usr/local/Cellar/avr-gcc@9/9.4.0_1/avr/include/math.h **** #ifndef __MATH_H
  49:/usr/local/Cellar/avr-gcc@9/9.4.0_1/avr/include/math.h **** #define __MATH_H
GAS LISTING /var/folders/sh/lj4855x88xqgpw006s7bny180000gn/T//ccZ3NiRc.s 			page 8


  50:/usr/local/Cellar/avr-gcc@9/9.4.0_1/avr/include/math.h **** 
  51:/usr/local/Cellar/avr-gcc@9/9.4.0_1/avr/include/math.h **** /** \file */
  52:/usr/local/Cellar/avr-gcc@9/9.4.0_1/avr/include/math.h **** /** \defgroup avr_math <math.h>: Mathematics
  53:/usr/local/Cellar/avr-gcc@9/9.4.0_1/avr/include/math.h ****     \code #include <math.h> \endcode
  54:/usr/local/Cellar/avr-gcc@9/9.4.0_1/avr/include/math.h **** 
  55:/usr/local/Cellar/avr-gcc@9/9.4.0_1/avr/include/math.h ****     This header file declares basic mathematics constants and
  56:/usr/local/Cellar/avr-gcc@9/9.4.0_1/avr/include/math.h ****     functions.
  57:/usr/local/Cellar/avr-gcc@9/9.4.0_1/avr/include/math.h **** 
  58:/usr/local/Cellar/avr-gcc@9/9.4.0_1/avr/include/math.h ****     \par Notes:
  59:/usr/local/Cellar/avr-gcc@9/9.4.0_1/avr/include/math.h ****     - In order to access the functions declared herein, it is usually
  60:/usr/local/Cellar/avr-gcc@9/9.4.0_1/avr/include/math.h ****       also required to additionally link against the library \c libm.a.
  61:/usr/local/Cellar/avr-gcc@9/9.4.0_1/avr/include/math.h ****       See also the related \ref faq_libm "FAQ entry".
  62:/usr/local/Cellar/avr-gcc@9/9.4.0_1/avr/include/math.h ****     - Math functions do not raise exceptions and do not change the
  63:/usr/local/Cellar/avr-gcc@9/9.4.0_1/avr/include/math.h ****       \c errno variable. Therefore the majority of them are declared
  64:/usr/local/Cellar/avr-gcc@9/9.4.0_1/avr/include/math.h ****       with const attribute, for better optimization by GCC.	*/
  65:/usr/local/Cellar/avr-gcc@9/9.4.0_1/avr/include/math.h **** 
  66:/usr/local/Cellar/avr-gcc@9/9.4.0_1/avr/include/math.h **** 
  67:/usr/local/Cellar/avr-gcc@9/9.4.0_1/avr/include/math.h **** /** \ingroup avr_math	*/
  68:/usr/local/Cellar/avr-gcc@9/9.4.0_1/avr/include/math.h **** /*@{*/
  69:/usr/local/Cellar/avr-gcc@9/9.4.0_1/avr/include/math.h **** 
  70:/usr/local/Cellar/avr-gcc@9/9.4.0_1/avr/include/math.h **** /** The constant \a e.	*/
  71:/usr/local/Cellar/avr-gcc@9/9.4.0_1/avr/include/math.h **** #define M_E		2.7182818284590452354
  72:/usr/local/Cellar/avr-gcc@9/9.4.0_1/avr/include/math.h **** 
  73:/usr/local/Cellar/avr-gcc@9/9.4.0_1/avr/include/math.h **** /** The logarithm of the \a e to base 2. */
  74:/usr/local/Cellar/avr-gcc@9/9.4.0_1/avr/include/math.h **** #define M_LOG2E		1.4426950408889634074	/* log_2 e */
  75:/usr/local/Cellar/avr-gcc@9/9.4.0_1/avr/include/math.h **** 
  76:/usr/local/Cellar/avr-gcc@9/9.4.0_1/avr/include/math.h **** /** The logarithm of the \a e to base 10. */
  77:/usr/local/Cellar/avr-gcc@9/9.4.0_1/avr/include/math.h **** #define M_LOG10E	0.43429448190325182765	/* log_10 e */
  78:/usr/local/Cellar/avr-gcc@9/9.4.0_1/avr/include/math.h **** 
  79:/usr/local/Cellar/avr-gcc@9/9.4.0_1/avr/include/math.h **** /** The natural logarithm of the 2.	*/
  80:/usr/local/Cellar/avr-gcc@9/9.4.0_1/avr/include/math.h **** #define M_LN2		0.69314718055994530942	/* log_e 2 */
  81:/usr/local/Cellar/avr-gcc@9/9.4.0_1/avr/include/math.h **** 
  82:/usr/local/Cellar/avr-gcc@9/9.4.0_1/avr/include/math.h **** /** The natural logarithm of the 10.	*/
  83:/usr/local/Cellar/avr-gcc@9/9.4.0_1/avr/include/math.h **** #define M_LN10		2.30258509299404568402	/* log_e 10 */
  84:/usr/local/Cellar/avr-gcc@9/9.4.0_1/avr/include/math.h **** 
  85:/usr/local/Cellar/avr-gcc@9/9.4.0_1/avr/include/math.h **** /** The constant \a pi.	*/
  86:/usr/local/Cellar/avr-gcc@9/9.4.0_1/avr/include/math.h **** #define M_PI		3.14159265358979323846	/* pi */
  87:/usr/local/Cellar/avr-gcc@9/9.4.0_1/avr/include/math.h **** 
  88:/usr/local/Cellar/avr-gcc@9/9.4.0_1/avr/include/math.h **** /** The constant \a pi/2.	*/
  89:/usr/local/Cellar/avr-gcc@9/9.4.0_1/avr/include/math.h **** #define M_PI_2		1.57079632679489661923	/* pi/2 */
  90:/usr/local/Cellar/avr-gcc@9/9.4.0_1/avr/include/math.h **** 
  91:/usr/local/Cellar/avr-gcc@9/9.4.0_1/avr/include/math.h **** /** The constant \a pi/4.	*/
  92:/usr/local/Cellar/avr-gcc@9/9.4.0_1/avr/include/math.h **** #define M_PI_4		0.78539816339744830962	/* pi/4 */
  93:/usr/local/Cellar/avr-gcc@9/9.4.0_1/avr/include/math.h **** 
  94:/usr/local/Cellar/avr-gcc@9/9.4.0_1/avr/include/math.h **** /** The constant \a 1/pi.	*/
  95:/usr/local/Cellar/avr-gcc@9/9.4.0_1/avr/include/math.h **** #define M_1_PI		0.31830988618379067154	/* 1/pi */
  96:/usr/local/Cellar/avr-gcc@9/9.4.0_1/avr/include/math.h **** 
  97:/usr/local/Cellar/avr-gcc@9/9.4.0_1/avr/include/math.h **** /** The constant \a 2/pi.	*/
  98:/usr/local/Cellar/avr-gcc@9/9.4.0_1/avr/include/math.h **** #define M_2_PI		0.63661977236758134308	/* 2/pi */
  99:/usr/local/Cellar/avr-gcc@9/9.4.0_1/avr/include/math.h **** 
 100:/usr/local/Cellar/avr-gcc@9/9.4.0_1/avr/include/math.h **** /** The constant \a 2/sqrt(pi).	*/
 101:/usr/local/Cellar/avr-gcc@9/9.4.0_1/avr/include/math.h **** #define M_2_SQRTPI	1.12837916709551257390	/* 2/sqrt(pi) */
 102:/usr/local/Cellar/avr-gcc@9/9.4.0_1/avr/include/math.h **** 
 103:/usr/local/Cellar/avr-gcc@9/9.4.0_1/avr/include/math.h **** /** The square root of 2.	*/
 104:/usr/local/Cellar/avr-gcc@9/9.4.0_1/avr/include/math.h **** #define M_SQRT2		1.41421356237309504880	/* sqrt(2) */
 105:/usr/local/Cellar/avr-gcc@9/9.4.0_1/avr/include/math.h **** 
 106:/usr/local/Cellar/avr-gcc@9/9.4.0_1/avr/include/math.h **** /** The constant \a 1/sqrt(2).	*/
GAS LISTING /var/folders/sh/lj4855x88xqgpw006s7bny180000gn/T//ccZ3NiRc.s 			page 9


 107:/usr/local/Cellar/avr-gcc@9/9.4.0_1/avr/include/math.h **** #define M_SQRT1_2	0.70710678118654752440	/* 1/sqrt(2) */
 108:/usr/local/Cellar/avr-gcc@9/9.4.0_1/avr/include/math.h **** 
 109:/usr/local/Cellar/avr-gcc@9/9.4.0_1/avr/include/math.h **** /** NAN constant.	*/
 110:/usr/local/Cellar/avr-gcc@9/9.4.0_1/avr/include/math.h **** #define NAN	__builtin_nan("")
 111:/usr/local/Cellar/avr-gcc@9/9.4.0_1/avr/include/math.h **** 
 112:/usr/local/Cellar/avr-gcc@9/9.4.0_1/avr/include/math.h **** /** INFINITY constant.	*/
 113:/usr/local/Cellar/avr-gcc@9/9.4.0_1/avr/include/math.h **** #define INFINITY	__builtin_inf()
 114:/usr/local/Cellar/avr-gcc@9/9.4.0_1/avr/include/math.h **** 
 115:/usr/local/Cellar/avr-gcc@9/9.4.0_1/avr/include/math.h **** 
 116:/usr/local/Cellar/avr-gcc@9/9.4.0_1/avr/include/math.h **** #ifndef __ATTR_CONST__
 117:/usr/local/Cellar/avr-gcc@9/9.4.0_1/avr/include/math.h **** # define __ATTR_CONST__ __attribute__((__const__))
 118:/usr/local/Cellar/avr-gcc@9/9.4.0_1/avr/include/math.h **** #endif
 119:/usr/local/Cellar/avr-gcc@9/9.4.0_1/avr/include/math.h **** 
 120:/usr/local/Cellar/avr-gcc@9/9.4.0_1/avr/include/math.h **** #if __SIZEOF_DOUBLE__ == __SIZEOF_FLOAT__
 121:/usr/local/Cellar/avr-gcc@9/9.4.0_1/avr/include/math.h **** /* In order to provide aliases for double functions in the case where
 122:/usr/local/Cellar/avr-gcc@9/9.4.0_1/avr/include/math.h ****    double = float, use declarations with according assembler name.
 123:/usr/local/Cellar/avr-gcc@9/9.4.0_1/avr/include/math.h ****    That way:
 124:/usr/local/Cellar/avr-gcc@9/9.4.0_1/avr/include/math.h ****    1) We do *NOT* use macros like
 125:/usr/local/Cellar/avr-gcc@9/9.4.0_1/avr/include/math.h ****          #define sin sinf
 126:/usr/local/Cellar/avr-gcc@9/9.4.0_1/avr/include/math.h ****       because that would interfere with C++.  For example, if some class
 127:/usr/local/Cellar/avr-gcc@9/9.4.0_1/avr/include/math.h ****       would implement a method 'sin', or if there was polymorthism for
 128:/usr/local/Cellar/avr-gcc@9/9.4.0_1/avr/include/math.h ****       a function 'sin', then we would silently rename these to 'sinf'.
 129:/usr/local/Cellar/avr-gcc@9/9.4.0_1/avr/include/math.h ****    2) We have proper prototypes, both for 'sin' and for 'sinf'.
 130:/usr/local/Cellar/avr-gcc@9/9.4.0_1/avr/include/math.h ****    3) It is zero-overhead.  */
 131:/usr/local/Cellar/avr-gcc@9/9.4.0_1/avr/include/math.h **** #define __ASM_ALIAS(x) __asm(#x)
 132:/usr/local/Cellar/avr-gcc@9/9.4.0_1/avr/include/math.h **** #else
 133:/usr/local/Cellar/avr-gcc@9/9.4.0_1/avr/include/math.h **** /* double != float: Provide double prototypes. */
 134:/usr/local/Cellar/avr-gcc@9/9.4.0_1/avr/include/math.h **** #define __ASM_ALIAS(x) /* empty */
 135:/usr/local/Cellar/avr-gcc@9/9.4.0_1/avr/include/math.h **** #endif
 136:/usr/local/Cellar/avr-gcc@9/9.4.0_1/avr/include/math.h **** 
 137:/usr/local/Cellar/avr-gcc@9/9.4.0_1/avr/include/math.h **** #ifdef __cplusplus
 138:/usr/local/Cellar/avr-gcc@9/9.4.0_1/avr/include/math.h **** extern "C" {
 139:/usr/local/Cellar/avr-gcc@9/9.4.0_1/avr/include/math.h **** #endif
 140:/usr/local/Cellar/avr-gcc@9/9.4.0_1/avr/include/math.h **** 
 141:/usr/local/Cellar/avr-gcc@9/9.4.0_1/avr/include/math.h **** /**
 142:/usr/local/Cellar/avr-gcc@9/9.4.0_1/avr/include/math.h ****     The cosf() function returns the cosine of \a __x, measured in radians.
 143:/usr/local/Cellar/avr-gcc@9/9.4.0_1/avr/include/math.h ****  */
 144:/usr/local/Cellar/avr-gcc@9/9.4.0_1/avr/include/math.h **** __ATTR_CONST__ extern float cosf (float __x);
 145:/usr/local/Cellar/avr-gcc@9/9.4.0_1/avr/include/math.h **** __ATTR_CONST__ extern double cos (double __x) __ASM_ALIAS(cosf);		/**< The alias for cosf().	*/
 146:/usr/local/Cellar/avr-gcc@9/9.4.0_1/avr/include/math.h **** 
 147:/usr/local/Cellar/avr-gcc@9/9.4.0_1/avr/include/math.h **** /**
 148:/usr/local/Cellar/avr-gcc@9/9.4.0_1/avr/include/math.h ****     The sinf() function returns the sine of \a __x, measured in radians.
 149:/usr/local/Cellar/avr-gcc@9/9.4.0_1/avr/include/math.h ****  */
 150:/usr/local/Cellar/avr-gcc@9/9.4.0_1/avr/include/math.h **** __ATTR_CONST__ extern float sinf (float __x);
 151:/usr/local/Cellar/avr-gcc@9/9.4.0_1/avr/include/math.h **** __ATTR_CONST__ extern double sin (double __x) __ASM_ALIAS(sinf);		/**< The alias for sinf().	*/
 152:/usr/local/Cellar/avr-gcc@9/9.4.0_1/avr/include/math.h **** 
 153:/usr/local/Cellar/avr-gcc@9/9.4.0_1/avr/include/math.h **** /**
 154:/usr/local/Cellar/avr-gcc@9/9.4.0_1/avr/include/math.h ****     The tanf() function returns the tangent of \a __x, measured in radians.
 155:/usr/local/Cellar/avr-gcc@9/9.4.0_1/avr/include/math.h ****  */
 156:/usr/local/Cellar/avr-gcc@9/9.4.0_1/avr/include/math.h **** __ATTR_CONST__ extern float tanf (float __x);
 157:/usr/local/Cellar/avr-gcc@9/9.4.0_1/avr/include/math.h **** __ATTR_CONST__ extern double tan (double __x) __ASM_ALIAS(tanf);		/**< The alias for tanf().	*/
 158:/usr/local/Cellar/avr-gcc@9/9.4.0_1/avr/include/math.h **** 
 159:/usr/local/Cellar/avr-gcc@9/9.4.0_1/avr/include/math.h **** /**
 160:/usr/local/Cellar/avr-gcc@9/9.4.0_1/avr/include/math.h ****     The fabsf() function computes the absolute value of a floating-point
 161:/usr/local/Cellar/avr-gcc@9/9.4.0_1/avr/include/math.h ****     number \a __x.
 162:/usr/local/Cellar/avr-gcc@9/9.4.0_1/avr/include/math.h ****  */
 163:/usr/local/Cellar/avr-gcc@9/9.4.0_1/avr/include/math.h **** static inline float fabsf (float __x)
GAS LISTING /var/folders/sh/lj4855x88xqgpw006s7bny180000gn/T//ccZ3NiRc.s 			page 10


 164:/usr/local/Cellar/avr-gcc@9/9.4.0_1/avr/include/math.h **** {
 165:/usr/local/Cellar/avr-gcc@9/9.4.0_1/avr/include/math.h ****     return __builtin_fabsf (__x);
 166:/usr/local/Cellar/avr-gcc@9/9.4.0_1/avr/include/math.h **** }
 167:/usr/local/Cellar/avr-gcc@9/9.4.0_1/avr/include/math.h **** 
 168:/usr/local/Cellar/avr-gcc@9/9.4.0_1/avr/include/math.h **** static inline double fabs (double __x)
 169:/usr/local/Cellar/avr-gcc@9/9.4.0_1/avr/include/math.h **** {
 170:/usr/local/Cellar/avr-gcc@9/9.4.0_1/avr/include/math.h ****     return __builtin_fabs (__x);
 116               		.loc 3 170 5 is_stmt 1 view .LVU32
 117               	.LBB24:
 118               	.LBB23:
 185:/usr/local/Cellar/avr-gcc@9/9.4.0_1/avr/include/util/delay.h **** 	#endif
 186:/usr/local/Cellar/avr-gcc@9/9.4.0_1/avr/include/util/delay.h **** 
 187:/usr/local/Cellar/avr-gcc@9/9.4.0_1/avr/include/util/delay.h **** 	__builtin_avr_delay_cycles(__ticks_dc);
 119               		.loc 2 187 2 view .LVU33
 120 000a 89EF      		ldi r24,lo8(249)
 121 000c 90E0      		ldi r25,hi8(249)
 122 000e 0197      	1:	sbiw r24,1
 123 0010 01F4      		brne 1b
 124 0012 00C0      		rjmp .
 125 0014 0000      		nop
 188:/usr/local/Cellar/avr-gcc@9/9.4.0_1/avr/include/util/delay.h **** 
 189:/usr/local/Cellar/avr-gcc@9/9.4.0_1/avr/include/util/delay.h **** #else
 190:/usr/local/Cellar/avr-gcc@9/9.4.0_1/avr/include/util/delay.h **** 	uint16_t __ticks;
 191:/usr/local/Cellar/avr-gcc@9/9.4.0_1/avr/include/util/delay.h **** 	__tmp = ((F_CPU) / 4e3) * __ms;
 192:/usr/local/Cellar/avr-gcc@9/9.4.0_1/avr/include/util/delay.h **** 	if (__tmp < 1.0)
 193:/usr/local/Cellar/avr-gcc@9/9.4.0_1/avr/include/util/delay.h **** 		__ticks = 1;
 194:/usr/local/Cellar/avr-gcc@9/9.4.0_1/avr/include/util/delay.h **** 	else if (__tmp > 65535)
 195:/usr/local/Cellar/avr-gcc@9/9.4.0_1/avr/include/util/delay.h **** 	{
 196:/usr/local/Cellar/avr-gcc@9/9.4.0_1/avr/include/util/delay.h **** 		//	__ticks = requested delay in 1/10 ms
 197:/usr/local/Cellar/avr-gcc@9/9.4.0_1/avr/include/util/delay.h **** 		__ticks = (uint16_t) (__ms * 10.0);
 198:/usr/local/Cellar/avr-gcc@9/9.4.0_1/avr/include/util/delay.h **** 		while(__ticks)
 199:/usr/local/Cellar/avr-gcc@9/9.4.0_1/avr/include/util/delay.h **** 		{
 200:/usr/local/Cellar/avr-gcc@9/9.4.0_1/avr/include/util/delay.h **** 			// wait 1/10 ms
 201:/usr/local/Cellar/avr-gcc@9/9.4.0_1/avr/include/util/delay.h **** 			_delay_loop_2(((F_CPU) / 4e3) / 10);
 202:/usr/local/Cellar/avr-gcc@9/9.4.0_1/avr/include/util/delay.h **** 			__ticks --;
 203:/usr/local/Cellar/avr-gcc@9/9.4.0_1/avr/include/util/delay.h **** 		}
 204:/usr/local/Cellar/avr-gcc@9/9.4.0_1/avr/include/util/delay.h **** 		return;
 205:/usr/local/Cellar/avr-gcc@9/9.4.0_1/avr/include/util/delay.h **** 	}
 206:/usr/local/Cellar/avr-gcc@9/9.4.0_1/avr/include/util/delay.h **** 	else
 207:/usr/local/Cellar/avr-gcc@9/9.4.0_1/avr/include/util/delay.h **** 		__ticks = (uint16_t)__tmp;
 208:/usr/local/Cellar/avr-gcc@9/9.4.0_1/avr/include/util/delay.h **** 	_delay_loop_2(__ticks);
 209:/usr/local/Cellar/avr-gcc@9/9.4.0_1/avr/include/util/delay.h **** #endif
 210:/usr/local/Cellar/avr-gcc@9/9.4.0_1/avr/include/util/delay.h **** }
 126               		.loc 2 210 1 is_stmt 0 view .LVU34
 127 0016 00C0      		rjmp .L4
 128               	.LBE23:
 129               	.LBE24:
 130               		.cfi_endproc
 131               	.LFE17:
 132               		.size	custom_delay_ms, .-custom_delay_ms
 133               		.section	.text.gentle_flicker,"ax",@progbits
 134               	.global	gentle_flicker
 135               		.type	gentle_flicker, @function
 136               	gentle_flicker:
 137               	.LVL5:
 138               	.LFB18:
  51:halloween_candle.c **** 
GAS LISTING /var/folders/sh/lj4855x88xqgpw006s7bny180000gn/T//ccZ3NiRc.s 			page 11


  52:halloween_candle.c **** void gentle_flicker(uint16_t duration) {
 139               		.loc 1 52 40 is_stmt 1 view -0
 140               		.cfi_startproc
 141               		.loc 1 52 40 is_stmt 0 view .LVU36
 142 0000 6F92      		push r6
 143               		.cfi_def_cfa_offset 3
 144               		.cfi_offset 6, -2
 145 0002 7F92      		push r7
 146               		.cfi_def_cfa_offset 4
 147               		.cfi_offset 7, -3
 148 0004 8F92      		push r8
 149               		.cfi_def_cfa_offset 5
 150               		.cfi_offset 8, -4
 151 0006 9F92      		push r9
 152               		.cfi_def_cfa_offset 6
 153               		.cfi_offset 9, -5
 154 0008 AF92      		push r10
 155               		.cfi_def_cfa_offset 7
 156               		.cfi_offset 10, -6
 157 000a BF92      		push r11
 158               		.cfi_def_cfa_offset 8
 159               		.cfi_offset 11, -7
 160 000c CF92      		push r12
 161               		.cfi_def_cfa_offset 9
 162               		.cfi_offset 12, -8
 163 000e DF92      		push r13
 164               		.cfi_def_cfa_offset 10
 165               		.cfi_offset 13, -9
 166 0010 EF92      		push r14
 167               		.cfi_def_cfa_offset 11
 168               		.cfi_offset 14, -10
 169 0012 FF92      		push r15
 170               		.cfi_def_cfa_offset 12
 171               		.cfi_offset 15, -11
 172 0014 0F93      		push r16
 173               		.cfi_def_cfa_offset 13
 174               		.cfi_offset 16, -12
 175 0016 1F93      		push r17
 176               		.cfi_def_cfa_offset 14
 177               		.cfi_offset 17, -13
 178 0018 CF93      		push r28
 179               		.cfi_def_cfa_offset 15
 180               		.cfi_offset 28, -14
 181 001a DF93      		push r29
 182               		.cfi_def_cfa_offset 16
 183               		.cfi_offset 29, -15
 184               	/* prologue: function */
 185               	/* frame size = 0 */
 186               	/* stack size = 14 */
 187               	.L__stack_usage = 14
 188 001c 3C01      		movw r6,r24
  53:halloween_candle.c ****     uint8_t base_intensity = 128;
 189               		.loc 1 53 5 is_stmt 1 view .LVU37
 190               	.LVL6:
  54:halloween_candle.c ****     for (uint16_t i = 0; i < duration; i++) {
 191               		.loc 1 54 5 view .LVU38
 192               	.LBB25:
GAS LISTING /var/folders/sh/lj4855x88xqgpw006s7bny180000gn/T//ccZ3NiRc.s 			page 12


 193               		.loc 1 54 10 view .LVU39
 194               		.loc 1 54 19 is_stmt 0 view .LVU40
 195 001e D0E0      		ldi r29,0
 196 0020 C0E0      		ldi r28,0
 197               	.LBB26:
  55:halloween_candle.c ****         int16_t variation;
  56:halloween_candle.c ****         
  57:halloween_candle.c ****         if (rand() % 100 < 10) {  // 10% chance of a larger flicker
 198               		.loc 1 57 20 view .LVU41
 199 0022 54E6      		ldi r21,lo8(100)
 200 0024 852E      		mov r8,r21
 201 0026 912C      		mov r9,__zero_reg__
  58:halloween_candle.c ****             variation = (rand() % 61) - 30;  // -30 to +30
  59:halloween_candle.c ****         } else {
  60:halloween_candle.c ****             variation = (rand() % 31) - 15;  // -15 to +15
 202               		.loc 1 60 33 view .LVU42
 203 0028 0FE1      		ldi r16,lo8(31)
 204 002a 10E0      		ldi r17,0
  58:halloween_candle.c ****             variation = (rand() % 61) - 30;  // -30 to +30
 205               		.loc 1 58 33 view .LVU43
 206 002c 6DE3      		ldi r22,lo8(61)
 207 002e E62E      		mov r14,r22
 208 0030 F12C      		mov r15,__zero_reg__
  61:halloween_candle.c ****         }
  62:halloween_candle.c ****         
  63:halloween_candle.c ****         int16_t intensity1 = base_intensity + variation;
  64:halloween_candle.c ****         int16_t intensity2 = base_intensity + (variation * 2 / 3);  // Slightly less variation for 
 209               		.loc 1 64 62 view .LVU44
 210 0032 73E0      		ldi r23,lo8(3)
 211 0034 C72E      		mov r12,r23
 212 0036 D12C      		mov r13,__zero_reg__
  65:halloween_candle.c ****         
  66:halloween_candle.c ****         // Ensure intensities are within valid range
  67:halloween_candle.c ****         intensity1 = (intensity1 < 0) ? 0 : ((intensity1 > 255) ? 255 : intensity1);
  68:halloween_candle.c ****         intensity2 = (intensity2 < 0) ? 0 : ((intensity2 > 255) ? 255 : intensity2);
  69:halloween_candle.c ****         
  70:halloween_candle.c ****         set_led_brightness((uint8_t)intensity1, (uint8_t)intensity2);
  71:halloween_candle.c ****         
  72:halloween_candle.c ****         custom_delay_ms(50 + (rand() % 50));  // Varying delay between 50-99ms
 213               		.loc 1 72 38 view .LVU45
 214 0038 E2E3      		ldi r30,lo8(50)
 215 003a AE2E      		mov r10,r30
 216 003c B12C      		mov r11,__zero_reg__
 217               	.LVL7:
 218               	.L7:
 219               		.loc 1 72 38 view .LVU46
 220               	.LBE26:
  54:halloween_candle.c ****         int16_t variation;
 221               		.loc 1 54 26 is_stmt 1 discriminator 2 view .LVU47
  54:halloween_candle.c ****         int16_t variation;
 222               		.loc 1 54 5 is_stmt 0 discriminator 2 view .LVU48
 223 003e C615      		cp r28,r6
 224 0040 D705      		cpc r29,r7
 225 0042 01F4      		brne .L10
 226               	/* epilogue start */
 227               	.LBE25:
  73:halloween_candle.c ****     }
GAS LISTING /var/folders/sh/lj4855x88xqgpw006s7bny180000gn/T//ccZ3NiRc.s 			page 13


  74:halloween_candle.c **** }
 228               		.loc 1 74 1 view .LVU49
 229 0044 DF91      		pop r29
 230 0046 CF91      		pop r28
 231               	.LVL8:
 232               		.loc 1 74 1 view .LVU50
 233 0048 1F91      		pop r17
 234 004a 0F91      		pop r16
 235 004c FF90      		pop r15
 236 004e EF90      		pop r14
 237 0050 DF90      		pop r13
 238 0052 CF90      		pop r12
 239 0054 BF90      		pop r11
 240 0056 AF90      		pop r10
 241 0058 9F90      		pop r9
 242 005a 8F90      		pop r8
 243 005c 7F90      		pop r7
 244 005e 6F90      		pop r6
 245               	.LVL9:
 246               		.loc 1 74 1 view .LVU51
 247 0060 0895      		ret
 248               	.LVL10:
 249               	.L10:
 250               	.LBB31:
 251               	.LBB29:
  55:halloween_candle.c ****         
 252               		.loc 1 55 9 is_stmt 1 view .LVU52
  57:halloween_candle.c ****             variation = (rand() % 61) - 30;  // -30 to +30
 253               		.loc 1 57 9 view .LVU53
  57:halloween_candle.c ****             variation = (rand() % 61) - 30;  // -30 to +30
 254               		.loc 1 57 13 is_stmt 0 view .LVU54
 255 0062 00D0      		rcall rand
 256               	.LVL11:
  57:halloween_candle.c ****             variation = (rand() % 61) - 30;  // -30 to +30
 257               		.loc 1 57 20 view .LVU55
 258 0064 B401      		movw r22,r8
 259 0066 00D0      		rcall __divmodhi4
  57:halloween_candle.c ****             variation = (rand() % 61) - 30;  // -30 to +30
 260               		.loc 1 57 12 view .LVU56
 261 0068 0A97      		sbiw r24,10
 262 006a 04F4      		brge .L8
  58:halloween_candle.c ****         } else {
 263               		.loc 1 58 13 is_stmt 1 view .LVU57
  58:halloween_candle.c ****         } else {
 264               		.loc 1 58 26 is_stmt 0 view .LVU58
 265 006c 00D0      		rcall rand
 266               	.LVL12:
  58:halloween_candle.c ****         } else {
 267               		.loc 1 58 33 view .LVU59
 268 006e B701      		movw r22,r14
 269 0070 00D0      		rcall __divmodhi4
  58:halloween_candle.c ****         } else {
 270               		.loc 1 58 23 view .LVU60
 271 0072 9C01      		movw r18,r24
 272 0074 2E51      		subi r18,30
 273 0076 3109      		sbc r19,__zero_reg__
 274               	.LVL13:
GAS LISTING /var/folders/sh/lj4855x88xqgpw006s7bny180000gn/T//ccZ3NiRc.s 			page 14


 275               	.L9:
  63:halloween_candle.c ****         int16_t intensity2 = base_intensity + (variation * 2 / 3);  // Slightly less variation for 
 276               		.loc 1 63 9 is_stmt 1 view .LVU61
  64:halloween_candle.c ****         
 277               		.loc 1 64 9 view .LVU62
  67:halloween_candle.c ****         intensity2 = (intensity2 < 0) ? 0 : ((intensity2 > 255) ? 255 : intensity2);
 278               		.loc 1 67 9 view .LVU63
  68:halloween_candle.c ****         
 279               		.loc 1 68 9 view .LVU64
  70:halloween_candle.c ****         
 280               		.loc 1 70 9 view .LVU65
  64:halloween_candle.c ****         
 281               		.loc 1 64 58 is_stmt 0 view .LVU66
 282 0078 C901      		movw r24,r18
 283 007a 880F      		lsl r24
 284 007c 991F      		rol r25
  64:halloween_candle.c ****         
 285               		.loc 1 64 62 view .LVU67
 286 007e B601      		movw r22,r12
 287 0080 00D0      		rcall __divmodhi4
  64:halloween_candle.c ****         
 288               		.loc 1 64 17 view .LVU68
 289 0082 6058      		subi r22,-128
 290 0084 7F4F      		sbci r23,-1
  63:halloween_candle.c ****         int16_t intensity2 = base_intensity + (variation * 2 / 3);  // Slightly less variation for 
 291               		.loc 1 63 17 view .LVU69
 292 0086 2058      		subi r18,-128
 293 0088 3F4F      		sbci r19,-1
 294               	.LVL14:
 295               	.LBB27:
 296               	.LBI27:
  41:halloween_candle.c ****     OCR0A = led1;
 297               		.loc 1 41 6 is_stmt 1 view .LVU70
 298               	.LBB28:
  42:halloween_candle.c ****     OCR1B = led2;
 299               		.loc 1 42 5 view .LVU71
  42:halloween_candle.c ****     OCR1B = led2;
 300               		.loc 1 42 11 is_stmt 0 view .LVU72
 301 008a 29BD      		out 0x29,r18
  43:halloween_candle.c **** }
 302               		.loc 1 43 5 is_stmt 1 view .LVU73
  43:halloween_candle.c **** }
 303               		.loc 1 43 11 is_stmt 0 view .LVU74
 304 008c 6BBD      		out 0x2b,r22
 305               	.LVL15:
  43:halloween_candle.c **** }
 306               		.loc 1 43 11 view .LVU75
 307               	.LBE28:
 308               	.LBE27:
  72:halloween_candle.c ****     }
 309               		.loc 1 72 9 is_stmt 1 view .LVU76
  72:halloween_candle.c ****     }
 310               		.loc 1 72 31 is_stmt 0 view .LVU77
 311 008e 00D0      		rcall rand
 312               	.LVL16:
  72:halloween_candle.c ****     }
 313               		.loc 1 72 38 view .LVU78
GAS LISTING /var/folders/sh/lj4855x88xqgpw006s7bny180000gn/T//ccZ3NiRc.s 			page 15


 314 0090 B501      		movw r22,r10
 315 0092 00D0      		rcall __divmodhi4
  72:halloween_candle.c ****     }
 316               		.loc 1 72 9 view .LVU79
 317 0094 C296      		adiw r24,50
 318 0096 00D0      		rcall custom_delay_ms
 319               	.LVL17:
 320               	.LBE29:
  54:halloween_candle.c ****         int16_t variation;
 321               		.loc 1 54 40 is_stmt 1 view .LVU80
  54:halloween_candle.c ****         int16_t variation;
 322               		.loc 1 54 41 is_stmt 0 view .LVU81
 323 0098 2196      		adiw r28,1
 324               	.LVL18:
  54:halloween_candle.c ****         int16_t variation;
 325               		.loc 1 54 41 view .LVU82
 326 009a 00C0      		rjmp .L7
 327               	.L8:
 328               	.LBB30:
  60:halloween_candle.c ****         }
 329               		.loc 1 60 13 is_stmt 1 view .LVU83
  60:halloween_candle.c ****         }
 330               		.loc 1 60 26 is_stmt 0 view .LVU84
 331 009c 00D0      		rcall rand
 332               	.LVL19:
  60:halloween_candle.c ****         }
 333               		.loc 1 60 33 view .LVU85
 334 009e B801      		movw r22,r16
 335 00a0 00D0      		rcall __divmodhi4
  60:halloween_candle.c ****         }
 336               		.loc 1 60 23 view .LVU86
 337 00a2 9C01      		movw r18,r24
 338 00a4 2F50      		subi r18,15
 339 00a6 3109      		sbc r19,__zero_reg__
 340               	.LVL20:
  60:halloween_candle.c ****         }
 341               		.loc 1 60 23 view .LVU87
 342 00a8 00C0      		rjmp .L9
 343               	.LBE30:
 344               	.LBE31:
 345               		.cfi_endproc
 346               	.LFE18:
 347               		.size	gentle_flicker, .-gentle_flicker
 348               		.section	.text.enhanced_candle,"ax",@progbits
 349               	.global	enhanced_candle
 350               		.type	enhanced_candle, @function
 351               	enhanced_candle:
 352               	.LVL21:
 353               	.LFB19:
  75:halloween_candle.c **** 
  76:halloween_candle.c **** void enhanced_candle(uint16_t duration) {
 354               		.loc 1 76 41 is_stmt 1 view -0
 355               		.cfi_startproc
 356               		.loc 1 76 41 is_stmt 0 view .LVU89
 357 0000 3F92      		push r3
 358               		.cfi_def_cfa_offset 3
 359               		.cfi_offset 3, -2
GAS LISTING /var/folders/sh/lj4855x88xqgpw006s7bny180000gn/T//ccZ3NiRc.s 			page 16


 360 0002 4F92      		push r4
 361               		.cfi_def_cfa_offset 4
 362               		.cfi_offset 4, -3
 363 0004 5F92      		push r5
 364               		.cfi_def_cfa_offset 5
 365               		.cfi_offset 5, -4
 366 0006 6F92      		push r6
 367               		.cfi_def_cfa_offset 6
 368               		.cfi_offset 6, -5
 369 0008 7F92      		push r7
 370               		.cfi_def_cfa_offset 7
 371               		.cfi_offset 7, -6
 372 000a 8F92      		push r8
 373               		.cfi_def_cfa_offset 8
 374               		.cfi_offset 8, -7
 375 000c 9F92      		push r9
 376               		.cfi_def_cfa_offset 9
 377               		.cfi_offset 9, -8
 378 000e AF92      		push r10
 379               		.cfi_def_cfa_offset 10
 380               		.cfi_offset 10, -9
 381 0010 BF92      		push r11
 382               		.cfi_def_cfa_offset 11
 383               		.cfi_offset 11, -10
 384 0012 CF92      		push r12
 385               		.cfi_def_cfa_offset 12
 386               		.cfi_offset 12, -11
 387 0014 DF92      		push r13
 388               		.cfi_def_cfa_offset 13
 389               		.cfi_offset 13, -12
 390 0016 EF92      		push r14
 391               		.cfi_def_cfa_offset 14
 392               		.cfi_offset 14, -13
 393 0018 FF92      		push r15
 394               		.cfi_def_cfa_offset 15
 395               		.cfi_offset 15, -14
 396 001a 0F93      		push r16
 397               		.cfi_def_cfa_offset 16
 398               		.cfi_offset 16, -15
 399 001c 1F93      		push r17
 400               		.cfi_def_cfa_offset 17
 401               		.cfi_offset 17, -16
 402 001e CF93      		push r28
 403               		.cfi_def_cfa_offset 18
 404               		.cfi_offset 28, -17
 405 0020 DF93      		push r29
 406               		.cfi_def_cfa_offset 19
 407               		.cfi_offset 29, -18
 408               	/* prologue: function */
 409               	/* frame size = 0 */
 410               	/* stack size = 17 */
 411               	.L__stack_usage = 17
 412 0022 3C01      		movw r6,r24
  77:halloween_candle.c ****     uint8_t base1 = 120, base2 = 100;  // Slightly different base intensities
 413               		.loc 1 77 5 is_stmt 1 view .LVU90
 414               	.LVL22:
  78:halloween_candle.c ****     uint8_t flicker_strength = 0;
GAS LISTING /var/folders/sh/lj4855x88xqgpw006s7bny180000gn/T//ccZ3NiRc.s 			page 17


 415               		.loc 1 78 5 view .LVU91
  79:halloween_candle.c ****     
  80:halloween_candle.c ****     for (uint16_t i = 0; i < duration; i++) {
 416               		.loc 1 80 5 view .LVU92
 417               	.LBB32:
 418               		.loc 1 80 10 view .LVU93
 419               		.loc 1 80 19 is_stmt 0 view .LVU94
 420 0024 D0E0      		ldi r29,0
 421 0026 C0E0      		ldi r28,0
 422               	.LBE32:
  78:halloween_candle.c ****     uint8_t flicker_strength = 0;
 423               		.loc 1 78 13 view .LVU95
 424 0028 312C      		mov r3,__zero_reg__
 425               	.LBB38:
 426               		.loc 1 80 5 view .LVU96
 427 002a 62E3      		ldi r22,lo8(50)
 428 002c 862E      		mov r8,r22
 429 002e 912C      		mov r9,__zero_reg__
 430               	.LBB33:
  81:halloween_candle.c ****         // Slowly vary the flicker strength
  82:halloween_candle.c ****         if (i % 50 == 0) {
  83:halloween_candle.c ****             flicker_strength = rand() % 20 + 10;  // 10 to 29
 431               		.loc 1 83 39 view .LVU97
 432 0030 04E1      		ldi r16,lo8(20)
 433 0032 10E0      		ldi r17,0
  84:halloween_candle.c ****         }
  85:halloween_candle.c ****         
  86:halloween_candle.c ****         // Generate main flicker
  87:halloween_candle.c ****         int16_t variation = (rand() % (flicker_strength * 2 + 1)) - flicker_strength;
  88:halloween_candle.c ****         
  89:halloween_candle.c ****         // Add occasional larger flickers
  90:halloween_candle.c ****         if (rand() % 100 < 5) {  // 5% chance of a larger flicker
 434               		.loc 1 90 20 view .LVU98
 435 0034 74E6      		ldi r23,lo8(100)
 436 0036 E72E      		mov r14,r23
 437 0038 F12C      		mov r15,__zero_reg__
  91:halloween_candle.c ****             variation += (rand() % 41) - 20;  // -20 to +20 additional variation
 438               		.loc 1 91 34 view .LVU99
 439 003a E9E2      		ldi r30,lo8(41)
 440 003c CE2E      		mov r12,r30
 441 003e D12C      		mov r13,__zero_reg__
  92:halloween_candle.c ****         }
  93:halloween_candle.c ****         
  94:halloween_candle.c ****         // Calculate LED intensities
  95:halloween_candle.c ****         int16_t intensity1 = base1 + variation;
  96:halloween_candle.c ****         int16_t intensity2 = base2 + (variation * 3 / 4);  // Slightly less variation for second LE
  97:halloween_candle.c ****         
  98:halloween_candle.c ****         // Ensure intensities are within valid range
  99:halloween_candle.c ****         intensity1 = (intensity1 < 0) ? 0 : ((intensity1 > 255) ? 255 : intensity1);
 100:halloween_candle.c ****         intensity2 = (intensity2 < 0) ? 0 : ((intensity2 > 255) ? 255 : intensity2);
 101:halloween_candle.c ****         
 102:halloween_candle.c ****         set_led_brightness((uint8_t)intensity1, (uint8_t)intensity2);
 103:halloween_candle.c ****         
 104:halloween_candle.c ****         custom_delay_ms(20 + (rand() % 10));  // Varying delay for more natural effect
 442               		.loc 1 104 38 view .LVU100
 443 0040 FAE0      		ldi r31,lo8(10)
 444 0042 AF2E      		mov r10,r31
GAS LISTING /var/folders/sh/lj4855x88xqgpw006s7bny180000gn/T//ccZ3NiRc.s 			page 18


 445 0044 B12C      		mov r11,__zero_reg__
 446               	.LVL23:
 447               	.L12:
 448               		.loc 1 104 38 view .LVU101
 449               	.LBE33:
  80:halloween_candle.c ****         // Slowly vary the flicker strength
 450               		.loc 1 80 26 is_stmt 1 discriminator 2 view .LVU102
  80:halloween_candle.c ****         // Slowly vary the flicker strength
 451               		.loc 1 80 5 is_stmt 0 discriminator 2 view .LVU103
 452 0046 C615      		cp r28,r6
 453 0048 D705      		cpc r29,r7
 454 004a 01F4      		brne .L20
 455               	/* epilogue start */
 456               	.LBE38:
 105:halloween_candle.c ****     }
 106:halloween_candle.c **** }
 457               		.loc 1 106 1 view .LVU104
 458 004c DF91      		pop r29
 459 004e CF91      		pop r28
 460               	.LVL24:
 461               		.loc 1 106 1 view .LVU105
 462 0050 1F91      		pop r17
 463 0052 0F91      		pop r16
 464 0054 FF90      		pop r15
 465 0056 EF90      		pop r14
 466 0058 DF90      		pop r13
 467 005a CF90      		pop r12
 468 005c BF90      		pop r11
 469 005e AF90      		pop r10
 470 0060 9F90      		pop r9
 471 0062 8F90      		pop r8
 472 0064 7F90      		pop r7
 473 0066 6F90      		pop r6
 474               	.LVL25:
 475               		.loc 1 106 1 view .LVU106
 476 0068 5F90      		pop r5
 477 006a 4F90      		pop r4
 478 006c 3F90      		pop r3
 479               	.LVL26:
 480               		.loc 1 106 1 view .LVU107
 481 006e 0895      		ret
 482               	.LVL27:
 483               	.L20:
 484               	.LBB39:
 485               	.LBB36:
  82:halloween_candle.c ****             flicker_strength = rand() % 20 + 10;  // 10 to 29
 486               		.loc 1 82 9 is_stmt 1 view .LVU108
 487               	.LBE36:
  80:halloween_candle.c ****         // Slowly vary the flicker strength
 488               		.loc 1 80 5 is_stmt 0 view .LVU109
 489 0070 CE01      		movw r24,r28
 490 0072 B401      		movw r22,r8
 491 0074 00D0      		rcall __udivmodhi4
 492               	.LBB37:
  82:halloween_candle.c ****             flicker_strength = rand() % 20 + 10;  // 10 to 29
 493               		.loc 1 82 12 view .LVU110
 494 0076 892B      		or r24,r25
GAS LISTING /var/folders/sh/lj4855x88xqgpw006s7bny180000gn/T//ccZ3NiRc.s 			page 19


 495 0078 01F4      		brne .L13
  83:halloween_candle.c ****         }
 496               		.loc 1 83 13 is_stmt 1 view .LVU111
  83:halloween_candle.c ****         }
 497               		.loc 1 83 32 is_stmt 0 view .LVU112
 498 007a 00D0      		rcall rand
 499               	.LVL28:
  83:halloween_candle.c ****         }
 500               		.loc 1 83 39 view .LVU113
 501 007c B801      		movw r22,r16
 502 007e 00D0      		rcall __divmodhi4
  83:halloween_candle.c ****         }
 503               		.loc 1 83 30 view .LVU114
 504 0080 5AE0      		ldi r21,lo8(10)
 505 0082 352E      		mov r3,r21
 506               	.LVL29:
  83:halloween_candle.c ****         }
 507               		.loc 1 83 30 view .LVU115
 508 0084 380E      		add r3,r24
 509               	.LVL30:
 510               	.L13:
  87:halloween_candle.c ****         
 511               		.loc 1 87 9 is_stmt 1 view .LVU116
  87:halloween_candle.c ****         
 512               		.loc 1 87 30 is_stmt 0 view .LVU117
 513 0086 00D0      		rcall rand
 514               	.LVL31:
  87:halloween_candle.c ****         
 515               		.loc 1 87 57 view .LVU118
 516 0088 232D      		mov r18,r3
 517 008a 30E0      		ldi r19,0
 518 008c B901      		movw r22,r18
 519 008e 660F      		lsl r22
 520 0090 771F      		rol r23
  87:halloween_candle.c ****         
 521               		.loc 1 87 61 view .LVU119
 522 0092 6F5F      		subi r22,-1
 523 0094 7F4F      		sbci r23,-1
  87:halloween_candle.c ****         
 524               		.loc 1 87 37 view .LVU120
 525 0096 00D0      		rcall __divmodhi4
  87:halloween_candle.c ****         
 526               		.loc 1 87 17 view .LVU121
 527 0098 2C01      		movw r4,r24
 528 009a 421A      		sub r4,r18
 529 009c 530A      		sbc r5,r19
 530               	.LVL32:
  90:halloween_candle.c ****             variation += (rand() % 41) - 20;  // -20 to +20 additional variation
 531               		.loc 1 90 9 is_stmt 1 view .LVU122
  90:halloween_candle.c ****             variation += (rand() % 41) - 20;  // -20 to +20 additional variation
 532               		.loc 1 90 13 is_stmt 0 view .LVU123
 533 009e 00D0      		rcall rand
 534               	.LVL33:
  90:halloween_candle.c ****             variation += (rand() % 41) - 20;  // -20 to +20 additional variation
 535               		.loc 1 90 20 view .LVU124
 536 00a0 B701      		movw r22,r14
 537 00a2 00D0      		rcall __divmodhi4
GAS LISTING /var/folders/sh/lj4855x88xqgpw006s7bny180000gn/T//ccZ3NiRc.s 			page 20


  90:halloween_candle.c ****             variation += (rand() % 41) - 20;  // -20 to +20 additional variation
 538               		.loc 1 90 12 view .LVU125
 539 00a4 0597      		sbiw r24,5
 540 00a6 04F4      		brge .L14
  91:halloween_candle.c ****         }
 541               		.loc 1 91 13 is_stmt 1 view .LVU126
  91:halloween_candle.c ****         }
 542               		.loc 1 91 27 is_stmt 0 view .LVU127
 543 00a8 00D0      		rcall rand
 544               	.LVL34:
  91:halloween_candle.c ****         }
 545               		.loc 1 91 34 view .LVU128
 546 00aa B601      		movw r22,r12
 547 00ac 00D0      		rcall __divmodhi4
  91:halloween_candle.c ****         }
 548               		.loc 1 91 40 view .LVU129
 549 00ae 4497      		sbiw r24,20
  91:halloween_candle.c ****         }
 550               		.loc 1 91 23 view .LVU130
 551 00b0 480E      		add r4,r24
 552 00b2 591E      		adc r5,r25
 553               	.LVL35:
 554               	.L14:
  95:halloween_candle.c ****         int16_t intensity2 = base2 + (variation * 3 / 4);  // Slightly less variation for second LE
 555               		.loc 1 95 9 is_stmt 1 view .LVU131
  96:halloween_candle.c ****         
 556               		.loc 1 96 9 view .LVU132
  99:halloween_candle.c ****         intensity2 = (intensity2 < 0) ? 0 : ((intensity2 > 255) ? 255 : intensity2);
 557               		.loc 1 99 9 view .LVU133
 100:halloween_candle.c ****         
 558               		.loc 1 100 9 view .LVU134
 102:halloween_candle.c ****         
 559               		.loc 1 102 9 view .LVU135
  96:halloween_candle.c ****         
 560               		.loc 1 96 49 is_stmt 0 view .LVU136
 561 00b4 C201      		movw r24,r4
 562 00b6 63E0      		ldi r22,lo8(3)
 563 00b8 70E0      		ldi r23,0
 564 00ba 00D0      		rcall __mulhi3
 565               	.LVL36:
  96:halloween_candle.c ****         
 566               		.loc 1 96 49 view .LVU137
 567 00bc 9C01      		movw r18,r24
  96:halloween_candle.c ****         
 568               		.loc 1 96 53 view .LVU138
 569 00be 97FF      		sbrs r25,7
 570 00c0 00C0      		rjmp .L15
  96:halloween_candle.c ****         
 571               		.loc 1 96 53 view .LVU139
 572 00c2 2D5F      		subi r18,-3
 573 00c4 3F4F      		sbci r19,-1
 574               	.L15:
 575 00c6 3595      		asr r19
 576 00c8 2795      		ror r18
 577 00ca 3595      		asr r19
 578 00cc 2795      		ror r18
 579               	.LVL37:
GAS LISTING /var/folders/sh/lj4855x88xqgpw006s7bny180000gn/T//ccZ3NiRc.s 			page 21


  96:halloween_candle.c ****         
 580               		.loc 1 96 17 view .LVU140
 581 00ce 2C59      		subi r18,-100
 582 00d0 3F4F      		sbci r19,-1
 100:halloween_candle.c ****         
 583               		.loc 1 100 43 view .LVU141
 584 00d2 2F3F      		cpi r18,-1
 585 00d4 3105      		cpc r19,__zero_reg__
 586 00d6 01F0      		breq .L16
 587 00d8 04F0      		brlt .L16
 588 00da 2FEF      		ldi r18,lo8(-1)
 589 00dc 30E0      		ldi r19,0
 590               	.L16:
 102:halloween_candle.c ****         
 591               		.loc 1 102 9 view .LVU142
 592 00de 37FD      		sbrc r19,7
 593 00e0 20E0      		ldi r18,0
 594               	.L17:
  95:halloween_candle.c ****         int16_t intensity2 = base2 + (variation * 3 / 4);  // Slightly less variation for second LE
 595               		.loc 1 95 17 view .LVU143
 596 00e2 C201      		movw r24,r4
 597 00e4 8858      		subi r24,-120
 598 00e6 9F4F      		sbci r25,-1
  99:halloween_candle.c ****         intensity2 = (intensity2 < 0) ? 0 : ((intensity2 > 255) ? 255 : intensity2);
 599               		.loc 1 99 43 view .LVU144
 600 00e8 8F3F      		cpi r24,-1
 601 00ea 9105      		cpc r25,__zero_reg__
 602 00ec 01F0      		breq .L18
 603 00ee 04F0      		brlt .L18
 604 00f0 8FEF      		ldi r24,lo8(-1)
 605 00f2 90E0      		ldi r25,0
 606               	.L18:
 102:halloween_candle.c ****         
 607               		.loc 1 102 9 view .LVU145
 608 00f4 97FD      		sbrc r25,7
 609 00f6 80E0      		ldi r24,0
 610               	.L19:
 611               	.LVL38:
 612               	.LBB34:
 613               	.LBI34:
  41:halloween_candle.c ****     OCR0A = led1;
 614               		.loc 1 41 6 is_stmt 1 view .LVU146
 615               	.LBB35:
  42:halloween_candle.c ****     OCR1B = led2;
 616               		.loc 1 42 5 view .LVU147
  42:halloween_candle.c ****     OCR1B = led2;
 617               		.loc 1 42 11 is_stmt 0 view .LVU148
 618 00f8 89BD      		out 0x29,r24
  43:halloween_candle.c **** }
 619               		.loc 1 43 5 is_stmt 1 view .LVU149
  43:halloween_candle.c **** }
 620               		.loc 1 43 11 is_stmt 0 view .LVU150
 621 00fa 2BBD      		out 0x2b,r18
 622               	.LVL39:
  43:halloween_candle.c **** }
 623               		.loc 1 43 11 view .LVU151
 624               	.LBE35:
GAS LISTING /var/folders/sh/lj4855x88xqgpw006s7bny180000gn/T//ccZ3NiRc.s 			page 22


 625               	.LBE34:
 104:halloween_candle.c ****     }
 626               		.loc 1 104 9 is_stmt 1 view .LVU152
 104:halloween_candle.c ****     }
 627               		.loc 1 104 31 is_stmt 0 view .LVU153
 628 00fc 00D0      		rcall rand
 629               	.LVL40:
 104:halloween_candle.c ****     }
 630               		.loc 1 104 38 view .LVU154
 631 00fe B501      		movw r22,r10
 632 0100 00D0      		rcall __divmodhi4
 104:halloween_candle.c ****     }
 633               		.loc 1 104 9 view .LVU155
 634 0102 4496      		adiw r24,20
 635 0104 00D0      		rcall custom_delay_ms
 636               	.LVL41:
 637               	.LBE37:
  80:halloween_candle.c ****         // Slowly vary the flicker strength
 638               		.loc 1 80 40 is_stmt 1 view .LVU156
  80:halloween_candle.c ****         // Slowly vary the flicker strength
 639               		.loc 1 80 41 is_stmt 0 view .LVU157
 640 0106 2196      		adiw r28,1
 641               	.LVL42:
  80:halloween_candle.c ****         // Slowly vary the flicker strength
 642               		.loc 1 80 41 view .LVU158
 643 0108 00C0      		rjmp .L12
 644               	.LBE39:
 645               		.cfi_endproc
 646               	.LFE19:
 647               		.size	enhanced_candle, .-enhanced_candle
 648               		.section	.text.distant_storm,"ax",@progbits
 649               	.global	distant_storm
 650               		.type	distant_storm, @function
 651               	distant_storm:
 652               	.LVL43:
 653               	.LFB20:
 107:halloween_candle.c **** 
 108:halloween_candle.c **** void distant_storm(uint16_t duration) {
 654               		.loc 1 108 39 is_stmt 1 view -0
 655               		.cfi_startproc
 656               		.loc 1 108 39 is_stmt 0 view .LVU160
 657 0000 5F92      		push r5
 658               		.cfi_def_cfa_offset 3
 659               		.cfi_offset 5, -2
 660 0002 6F92      		push r6
 661               		.cfi_def_cfa_offset 4
 662               		.cfi_offset 6, -3
 663 0004 7F92      		push r7
 664               		.cfi_def_cfa_offset 5
 665               		.cfi_offset 7, -4
 666 0006 8F92      		push r8
 667               		.cfi_def_cfa_offset 6
 668               		.cfi_offset 8, -5
 669 0008 9F92      		push r9
 670               		.cfi_def_cfa_offset 7
 671               		.cfi_offset 9, -6
 672 000a AF92      		push r10
GAS LISTING /var/folders/sh/lj4855x88xqgpw006s7bny180000gn/T//ccZ3NiRc.s 			page 23


 673               		.cfi_def_cfa_offset 8
 674               		.cfi_offset 10, -7
 675 000c BF92      		push r11
 676               		.cfi_def_cfa_offset 9
 677               		.cfi_offset 11, -8
 678 000e CF92      		push r12
 679               		.cfi_def_cfa_offset 10
 680               		.cfi_offset 12, -9
 681 0010 DF92      		push r13
 682               		.cfi_def_cfa_offset 11
 683               		.cfi_offset 13, -10
 684 0012 EF92      		push r14
 685               		.cfi_def_cfa_offset 12
 686               		.cfi_offset 14, -11
 687 0014 FF92      		push r15
 688               		.cfi_def_cfa_offset 13
 689               		.cfi_offset 15, -12
 690 0016 0F93      		push r16
 691               		.cfi_def_cfa_offset 14
 692               		.cfi_offset 16, -13
 693 0018 1F93      		push r17
 694               		.cfi_def_cfa_offset 15
 695               		.cfi_offset 17, -14
 696 001a CF93      		push r28
 697               		.cfi_def_cfa_offset 16
 698               		.cfi_offset 28, -15
 699 001c DF93      		push r29
 700               		.cfi_def_cfa_offset 17
 701               		.cfi_offset 29, -16
 702               	/* prologue: function */
 703               	/* frame size = 0 */
 704               	/* stack size = 15 */
 705               	.L__stack_usage = 15
 706 001e 4C01      		movw r8,r24
 109:halloween_candle.c ****     uint8_t base_intensity = 50;
 707               		.loc 1 109 5 is_stmt 1 view .LVU161
 708               	.LVL44:
 110:halloween_candle.c ****     uint8_t flash_countdown = rand() % 20;
 709               		.loc 1 110 5 view .LVU162
 710               		.loc 1 110 31 is_stmt 0 view .LVU163
 711 0020 00D0      		rcall rand
 712               	.LVL45:
 713               		.loc 1 110 38 view .LVU164
 714 0022 64E1      		ldi r22,lo8(20)
 715 0024 70E0      		ldi r23,0
 716 0026 00D0      		rcall __divmodhi4
 717               		.loc 1 110 13 view .LVU165
 718 0028 782E      		mov r7,r24
 719               	.LVL46:
 111:halloween_candle.c ****     
 112:halloween_candle.c ****     for (uint16_t i = 0; i < duration; i++) {
 720               		.loc 1 112 5 is_stmt 1 view .LVU166
 721               	.LBB40:
 722               		.loc 1 112 10 view .LVU167
 723               		.loc 1 112 19 is_stmt 0 view .LVU168
 724 002a D0E0      		ldi r29,0
 725 002c C0E0      		ldi r28,0
GAS LISTING /var/folders/sh/lj4855x88xqgpw006s7bny180000gn/T//ccZ3NiRc.s 			page 24


 726               	.LBB41:
 727               	.LBB42:
 113:halloween_candle.c ****         uint8_t brightness1, brightness2;
 114:halloween_candle.c ****         
 115:halloween_candle.c ****         if (flash_countdown == 0) {
 116:halloween_candle.c ****             brightness1 = base_intensity + (rand() % 150);  // Varying flash intensity
 117:halloween_candle.c ****             brightness2 = brightness1 - (rand() % 31);  // Slightly dimmer flash
 118:halloween_candle.c ****             flash_countdown = rand() % 20 + 10;
 119:halloween_candle.c ****         } else {
 120:halloween_candle.c ****             int8_t variation = (rand() % 21) - 10;  // -10 to +10
 728               		.loc 1 120 40 view .LVU169
 729 002e 05E1      		ldi r16,lo8(21)
 730 0030 10E0      		ldi r17,0
 731               	.LBE42:
 116:halloween_candle.c ****             brightness2 = brightness1 - (rand() % 31);  // Slightly dimmer flash
 732               		.loc 1 116 52 view .LVU170
 733 0032 46E9      		ldi r20,lo8(-106)
 734 0034 E42E      		mov r14,r20
 735 0036 F12C      		mov r15,__zero_reg__
 117:halloween_candle.c ****             flash_countdown = rand() % 20 + 10;
 736               		.loc 1 117 49 view .LVU171
 737 0038 5FE1      		ldi r21,lo8(31)
 738 003a C52E      		mov r12,r21
 739 003c D12C      		mov r13,__zero_reg__
 118:halloween_candle.c ****         } else {
 740               		.loc 1 118 38 view .LVU172
 741 003e 64E1      		ldi r22,lo8(20)
 742 0040 A62E      		mov r10,r22
 743 0042 B12C      		mov r11,__zero_reg__
 744               	.LVL47:
 745               	.L22:
 118:halloween_candle.c ****         } else {
 746               		.loc 1 118 38 view .LVU173
 747               	.LBE41:
 112:halloween_candle.c ****         uint8_t brightness1, brightness2;
 748               		.loc 1 112 26 is_stmt 1 discriminator 1 view .LVU174
 112:halloween_candle.c ****         uint8_t brightness1, brightness2;
 749               		.loc 1 112 5 is_stmt 0 discriminator 1 view .LVU175
 750 0044 C815      		cp r28,r8
 751 0046 D905      		cpc r29,r9
 752 0048 01F4      		brne .L26
 753               	/* epilogue start */
 754               	.LBE40:
 121:halloween_candle.c ****             brightness1 = base_intensity + variation;
 122:halloween_candle.c ****             brightness2 = base_intensity + (variation / 2);  // Subtle difference
 123:halloween_candle.c ****             flash_countdown--;
 124:halloween_candle.c ****         }
 125:halloween_candle.c ****         
 126:halloween_candle.c ****         set_led_brightness(brightness1, brightness2);
 127:halloween_candle.c ****         custom_delay_ms(100);
 128:halloween_candle.c ****     }
 129:halloween_candle.c **** }...
 755               		.loc 1 129 1 view .LVU176
 756 004a DF91      		pop r29
 757 004c CF91      		pop r28
 758               	.LVL48:
 759               		.loc 1 129 1 view .LVU177
GAS LISTING /var/folders/sh/lj4855x88xqgpw006s7bny180000gn/T//ccZ3NiRc.s 			page 25


 760 004e 1F91      		pop r17
 761 0050 0F91      		pop r16
 762 0052 FF90      		pop r15
 763 0054 EF90      		pop r14
 764 0056 DF90      		pop r13
 765 0058 CF90      		pop r12
 766 005a BF90      		pop r11
 767 005c AF90      		pop r10
 768 005e 9F90      		pop r9
 769 0060 8F90      		pop r8
 770               	.LVL49:
 771               		.loc 1 129 1 view .LVU178
 772 0062 7F90      		pop r7
 773               	.LVL50:
 774               		.loc 1 129 1 view .LVU179
 775 0064 6F90      		pop r6
 776 0066 5F90      		pop r5
 777 0068 0895      		ret
 778               	.LVL51:
 779               	.L26:
 780               	.LBB48:
 781               	.LBB46:
 113:halloween_candle.c ****         uint8_t brightness1, brightness2;
 782               		.loc 1 113 9 is_stmt 1 view .LVU180
 115:halloween_candle.c ****         if (flash_countdown == 0) {
 783               		.loc 1 115 9 view .LVU181
 115:halloween_candle.c ****         if (flash_countdown == 0) {
 784               		.loc 1 115 12 is_stmt 0 view .LVU182
 785 006a 7110      		cpse r7,__zero_reg__
 786 006c 00C0      		rjmp .L23
 116:halloween_candle.c ****             brightness1 = base_intensity + (rand() % 150);  // Varying flash intensity
 787               		.loc 1 116 13 is_stmt 1 view .LVU183
 116:halloween_candle.c ****             brightness1 = base_intensity + (rand() % 150);  // Varying flash intensity
 788               		.loc 1 116 45 is_stmt 0 view .LVU184
 789 006e 00D0      		rcall rand
 790               	.LVL52:
 116:halloween_candle.c ****             brightness1 = base_intensity + (rand() % 150);  // Varying flash intensity
 791               		.loc 1 116 52 view .LVU185
 792 0070 B701      		movw r22,r14
 793 0072 00D0      		rcall __divmodhi4
 116:halloween_candle.c ****             brightness1 = base_intensity + (rand() % 150);  // Varying flash intensity
 794               		.loc 1 116 25 view .LVU186
 795 0074 22E3      		ldi r18,lo8(50)
 796 0076 522E      		mov r5,r18
 797 0078 580E      		add r5,r24
 798               	.LVL53:
 117:halloween_candle.c ****             brightness2 = brightness1 - (rand() % 31);  // Slightly dimmer flash
 799               		.loc 1 117 13 is_stmt 1 view .LVU187
 117:halloween_candle.c ****             brightness2 = brightness1 - (rand() % 31);  // Slightly dimmer flash
 800               		.loc 1 117 42 is_stmt 0 view .LVU188
 801 007a 00D0      		rcall rand
 802               	.LVL54:
 117:halloween_candle.c ****             brightness2 = brightness1 - (rand() % 31);  // Slightly dimmer flash
 803               		.loc 1 117 49 view .LVU189
 804 007c B601      		movw r22,r12
 805 007e 00D0      		rcall __divmodhi4
 117:halloween_candle.c ****             brightness2 = brightness1 - (rand() % 31);  // Slightly dimmer flash
GAS LISTING /var/folders/sh/lj4855x88xqgpw006s7bny180000gn/T//ccZ3NiRc.s 			page 26


 806               		.loc 1 117 25 view .LVU190
 807 0080 652C      		mov r6,r5
 808 0082 681A      		sub r6,r24
 809               	.LVL55:
 118:halloween_candle.c ****             flash_countdown = rand() % 20 + 10;
 810               		.loc 1 118 13 is_stmt 1 view .LVU191
 118:halloween_candle.c ****             flash_countdown = rand() % 20 + 10;
 811               		.loc 1 118 31 is_stmt 0 view .LVU192
 812 0084 00D0      		rcall rand
 813               	.LVL56:
 118:halloween_candle.c ****             flash_countdown = rand() % 20 + 10;
 814               		.loc 1 118 38 view .LVU193
 815 0086 B501      		movw r22,r10
 816 0088 00D0      		rcall __divmodhi4
 118:halloween_candle.c ****             flash_countdown = rand() % 20 + 10;
 817               		.loc 1 118 29 view .LVU194
 818 008a 3AE0      		ldi r19,lo8(10)
 819 008c 732E      		mov r7,r19
 820               	.LVL57:
 118:halloween_candle.c ****             flash_countdown = rand() % 20 + 10;
 821               		.loc 1 118 29 view .LVU195
 822 008e 780E      		add r7,r24
 823               	.LVL58:
 824               	.L24:
 126:halloween_candle.c ****         set_led_brightness(brightness1, brightness2);
 825               		.loc 1 126 9 is_stmt 1 discriminator 2 view .LVU196
 826               	.LBB43:
 827               	.LBI43:
  41:halloween_candle.c **** void set_led_brightness(uint8_t led1, uint8_t led2) {
 828               		.loc 1 41 6 discriminator 2 view .LVU197
 829               	.LBB44:
  42:halloween_candle.c ****     OCR0A = led1;
 830               		.loc 1 42 5 discriminator 2 view .LVU198
  42:halloween_candle.c ****     OCR0A = led1;
 831               		.loc 1 42 11 is_stmt 0 discriminator 2 view .LVU199
 832 0090 59BC      		out 0x29,r5
  43:halloween_candle.c ****     OCR1B = led2;
 833               		.loc 1 43 5 is_stmt 1 discriminator 2 view .LVU200
  43:halloween_candle.c ****     OCR1B = led2;
 834               		.loc 1 43 11 is_stmt 0 discriminator 2 view .LVU201
 835 0092 6BBC      		out 0x2b,r6
 836               	.LVL59:
  43:halloween_candle.c ****     OCR1B = led2;
 837               		.loc 1 43 11 discriminator 2 view .LVU202
 838               	.LBE44:
 839               	.LBE43:
 127:halloween_candle.c ****         custom_delay_ms(100);
 840               		.loc 1 127 9 is_stmt 1 discriminator 2 view .LVU203
 841 0094 84E6      		ldi r24,lo8(100)
 842 0096 90E0      		ldi r25,0
 843 0098 00D0      		rcall custom_delay_ms
 844               	.LVL60:
 845               	.LBE46:
 112:halloween_candle.c ****     for (uint16_t i = 0; i < duration; i++) {
 846               		.loc 1 112 40 discriminator 2 view .LVU204
 112:halloween_candle.c ****     for (uint16_t i = 0; i < duration; i++) {
 847               		.loc 1 112 41 is_stmt 0 discriminator 2 view .LVU205
GAS LISTING /var/folders/sh/lj4855x88xqgpw006s7bny180000gn/T//ccZ3NiRc.s 			page 27


 848 009a 2196      		adiw r28,1
 849               	.LVL61:
 112:halloween_candle.c ****     for (uint16_t i = 0; i < duration; i++) {
 850               		.loc 1 112 41 discriminator 2 view .LVU206
 851 009c 00C0      		rjmp .L22
 852               	.LVL62:
 853               	.L23:
 854               	.LBB47:
 855               	.LBB45:
 120:halloween_candle.c ****             int8_t variation = (rand() % 21) - 10;  // -10 to +10
 856               		.loc 1 120 13 is_stmt 1 view .LVU207
 120:halloween_candle.c ****             int8_t variation = (rand() % 21) - 10;  // -10 to +10
 857               		.loc 1 120 33 is_stmt 0 view .LVU208
 858 009e 00D0      		rcall rand
 859               	.LVL63:
 120:halloween_candle.c ****             int8_t variation = (rand() % 21) - 10;  // -10 to +10
 860               		.loc 1 120 40 view .LVU209
 861 00a0 B801      		movw r22,r16
 862 00a2 00D0      		rcall __divmodhi4
 863               	.LVL64:
 121:halloween_candle.c ****             brightness1 = base_intensity + variation;
 864               		.loc 1 121 13 is_stmt 1 view .LVU210
 121:halloween_candle.c ****             brightness1 = base_intensity + variation;
 865               		.loc 1 121 25 is_stmt 0 view .LVU211
 866 00a4 98E2      		ldi r25,lo8(40)
 867 00a6 592E      		mov r5,r25
 868 00a8 580E      		add r5,r24
 869               	.LVL65:
 122:halloween_candle.c ****             brightness2 = base_intensity + (variation / 2);  // Subtle difference
 870               		.loc 1 122 13 is_stmt 1 view .LVU212
 120:halloween_candle.c ****             int8_t variation = (rand() % 21) - 10;  // -10 to +10
 871               		.loc 1 120 46 is_stmt 0 view .LVU213
 872 00aa 96EF      		ldi r25,lo8(-10)
 873 00ac 980F      		add r25,r24
 874               	.LVL66:
 122:halloween_candle.c ****             brightness2 = base_intensity + (variation / 2);  // Subtle difference
 875               		.loc 1 122 42 view .LVU214
 876 00ae 97FF      		sbrs r25,7
 877 00b0 00C0      		rjmp .L25
 878 00b2 97EF      		ldi r25,lo8(-9)
 879               	.LVL67:
 122:halloween_candle.c ****             brightness2 = base_intensity + (variation / 2);  // Subtle difference
 880               		.loc 1 122 42 view .LVU215
 881 00b4 980F      		add r25,r24
 882               	.L25:
 883 00b6 9595      		asr r25
 122:halloween_candle.c ****             brightness2 = base_intensity + (variation / 2);  // Subtle difference
 884               		.loc 1 122 25 view .LVU216
 885 00b8 82E3      		ldi r24,lo8(50)
 886 00ba 682E      		mov r6,r24
 887               	.LVL68:
 122:halloween_candle.c ****             brightness2 = base_intensity + (variation / 2);  // Subtle difference
 888               		.loc 1 122 25 view .LVU217
 889 00bc 690E      		add r6,r25
 890               	.LVL69:
 123:halloween_candle.c ****             flash_countdown--;
 891               		.loc 1 123 13 is_stmt 1 view .LVU218
GAS LISTING /var/folders/sh/lj4855x88xqgpw006s7bny180000gn/T//ccZ3NiRc.s 			page 28


 123:halloween_candle.c ****             flash_countdown--;
 892               		.loc 1 123 28 is_stmt 0 view .LVU219
 893 00be 7A94      		dec r7
 894               	.LVL70:
 123:halloween_candle.c ****             flash_countdown--;
 895               		.loc 1 123 28 view .LVU220
 896 00c0 00C0      		rjmp .L24
 897               	.LBE45:
 898               	.LBE47:
 899               	.LBE48:
 900               		.cfi_endproc
 901               	.LFE20:
 902               		.size	distant_storm, .-distant_storm
 903               		.section	.text.startup.main,"ax",@progbits
 904               	.global	main
 905               		.type	main, @function
 906               	main:
 907               	.LFB14:
  17:halloween_candle.c **** int main(void) {
 908               		.loc 1 17 16 is_stmt 1 view -0
 909               		.cfi_startproc
 910               	/* prologue: function */
 911               	/* frame size = 0 */
 912               	/* stack size = 0 */
 913               	.L__stack_usage = 0
  18:halloween_candle.c ****     setup();
 914               		.loc 1 18 5 view .LVU222
 915 0000 00D0      		rcall setup
 916               	.LVL71:
  23:halloween_candle.c ****     distant_storm(1000);     // 5 seconds
 917               		.loc 1 23 5 view .LVU223
 918 0002 88EE      		ldi r24,lo8(-24)
 919 0004 93E0      		ldi r25,lo8(3)
 920               	.L29:
 921 0006 00D0      		rcall distant_storm
 922               	.LVL72:
  26:halloween_candle.c ****     while (1) {
 923               		.loc 1 26 5 view .LVU224
  27:halloween_candle.c ****         gentle_flicker(3000);   // 5 minutes (3000 * 100ms = 300000ms = 5 minutes)
 924               		.loc 1 27 9 view .LVU225
 925 0008 88EB      		ldi r24,lo8(-72)
 926 000a 9BE0      		ldi r25,lo8(11)
 927 000c 00D0      		rcall gentle_flicker
 928               	.LVL73:
  28:halloween_candle.c ****         enhanced_candle(600);  // 5 minutes
 929               		.loc 1 28 9 view .LVU226
 930 000e 88E5      		ldi r24,lo8(88)
 931 0010 92E0      		ldi r25,lo8(2)
 932 0012 00D0      		rcall enhanced_candle
 933               	.LVL74:
  29:halloween_candle.c ****         distant_storm(3000);    // 5 minutes
 934               		.loc 1 29 9 view .LVU227
 935 0014 88EB      		ldi r24,lo8(-72)
 936 0016 9BE0      		ldi r25,lo8(11)
 937 0018 00C0      		rjmp .L29
 938               		.cfi_endproc
 939               	.LFE14:
GAS LISTING /var/folders/sh/lj4855x88xqgpw006s7bny180000gn/T//ccZ3NiRc.s 			page 29


 940               		.size	main, .-main
 941               		.text
 942               	.Letext0:
 943               		.file 4 "/usr/local/Cellar/avr-gcc@9/9.4.0_1/avr/include/stdint.h"
 944               		.file 5 "/usr/local/Cellar/avr-gcc@9/9.4.0_1/lib/avr-gcc/9/gcc/avr/9.4.0/include/stddef.h"
 945               		.file 6 "/usr/local/Cellar/avr-gcc@9/9.4.0_1/avr/include/stdlib.h"
 946               		.section	.debug_info,"",@progbits
 947               	.Ldebug_info0:
 948 0000 9705 0000 		.long	0x597
 949 0004 0400      		.word	0x4
 950 0006 0000 0000 		.long	.Ldebug_abbrev0
 951 000a 04        		.byte	0x4
 952 000b 01        		.uleb128 0x1
 953 000c 0000 0000 		.long	.LASF38
 954 0010 0C        		.byte	0xc
 955 0011 0000 0000 		.long	.LASF39
 956 0015 0000 0000 		.long	.LASF40
 957 0019 0000 0000 		.long	.Ldebug_ranges0+0xe0
 958 001d 0000 0000 		.long	0
 959 0021 0000 0000 		.long	.Ldebug_line0
 960 0025 02        		.uleb128 0x2
 961 0026 0000 0000 		.long	.LASF0
 962 002a 04        		.byte	0x4
 963 002b 7D        		.byte	0x7d
 964 002c 14        		.byte	0x14
 965 002d 3100 0000 		.long	0x31
 966 0031 03        		.uleb128 0x3
 967 0032 01        		.byte	0x1
 968 0033 06        		.byte	0x6
 969 0034 0000 0000 		.long	.LASF2
 970 0038 02        		.uleb128 0x2
 971 0039 0000 0000 		.long	.LASF1
 972 003d 04        		.byte	0x4
 973 003e 7E        		.byte	0x7e
 974 003f 16        		.byte	0x16
 975 0040 4400 0000 		.long	0x44
 976 0044 03        		.uleb128 0x3
 977 0045 01        		.byte	0x1
 978 0046 08        		.byte	0x8
 979 0047 0000 0000 		.long	.LASF3
 980 004b 02        		.uleb128 0x2
 981 004c 0000 0000 		.long	.LASF4
 982 0050 04        		.byte	0x4
 983 0051 7F        		.byte	0x7f
 984 0052 14        		.byte	0x14
 985 0053 5700 0000 		.long	0x57
 986 0057 04        		.uleb128 0x4
 987 0058 02        		.byte	0x2
 988 0059 05        		.byte	0x5
 989 005a 696E 7400 		.string	"int"
 990 005e 02        		.uleb128 0x2
 991 005f 0000 0000 		.long	.LASF5
 992 0063 04        		.byte	0x4
 993 0064 80        		.byte	0x80
 994 0065 16        		.byte	0x16
 995 0066 6A00 0000 		.long	0x6a
 996 006a 03        		.uleb128 0x3
GAS LISTING /var/folders/sh/lj4855x88xqgpw006s7bny180000gn/T//ccZ3NiRc.s 			page 30


 997 006b 02        		.byte	0x2
 998 006c 07        		.byte	0x7
 999 006d 0000 0000 		.long	.LASF6
 1000 0071 03        		.uleb128 0x3
 1001 0072 04        		.byte	0x4
 1002 0073 05        		.byte	0x5
 1003 0074 0000 0000 		.long	.LASF7
 1004 0078 02        		.uleb128 0x2
 1005 0079 0000 0000 		.long	.LASF8
 1006 007d 04        		.byte	0x4
 1007 007e 82        		.byte	0x82
 1008 007f 16        		.byte	0x16
 1009 0080 8400 0000 		.long	0x84
 1010 0084 03        		.uleb128 0x3
 1011 0085 04        		.byte	0x4
 1012 0086 07        		.byte	0x7
 1013 0087 0000 0000 		.long	.LASF9
 1014 008b 03        		.uleb128 0x3
 1015 008c 08        		.byte	0x8
 1016 008d 05        		.byte	0x5
 1017 008e 0000 0000 		.long	.LASF10
 1018 0092 03        		.uleb128 0x3
 1019 0093 08        		.byte	0x8
 1020 0094 07        		.byte	0x7
 1021 0095 0000 0000 		.long	.LASF11
 1022 0099 02        		.uleb128 0x2
 1023 009a 0000 0000 		.long	.LASF12
 1024 009e 05        		.byte	0x5
 1025 009f D1        		.byte	0xd1
 1026 00a0 17        		.byte	0x17
 1027 00a1 6A00 0000 		.long	0x6a
 1028 00a5 05        		.uleb128 0x5
 1029 00a6 0000 0000 		.long	.LASF13
 1030 00aa 06        		.byte	0x6
 1031 00ab 3801      		.word	0x138
 1032 00ad 0F        		.byte	0xf
 1033 00ae 9900 0000 		.long	0x99
 1034 00b2 05        		.uleb128 0x5
 1035 00b3 0000 0000 		.long	.LASF14
 1036 00b7 06        		.byte	0x6
 1037 00b8 3D01      		.word	0x13d
 1038 00ba 0E        		.byte	0xe
 1039 00bb BF00 0000 		.long	0xbf
 1040 00bf 06        		.uleb128 0x6
 1041 00c0 02        		.byte	0x2
 1042 00c1 C500 0000 		.long	0xc5
 1043 00c5 03        		.uleb128 0x3
 1044 00c6 01        		.byte	0x1
 1045 00c7 08        		.byte	0x8
 1046 00c8 0000 0000 		.long	.LASF15
 1047 00cc 05        		.uleb128 0x5
 1048 00cd 0000 0000 		.long	.LASF16
 1049 00d1 06        		.byte	0x6
 1050 00d2 4201      		.word	0x142
 1051 00d4 0E        		.byte	0xe
 1052 00d5 BF00 0000 		.long	0xbf
 1053 00d9 07        		.uleb128 0x7
GAS LISTING /var/folders/sh/lj4855x88xqgpw006s7bny180000gn/T//ccZ3NiRc.s 			page 31


 1054 00da 0000 0000 		.long	.LASF21
 1055 00de 01        		.byte	0x1
 1056 00df 6C        		.byte	0x6c
 1057 00e0 06        		.byte	0x6
 1058 00e1 0000 0000 		.long	.LFB20
 1059 00e5 C200 0000 		.long	.LFE20-.LFB20
 1060 00e9 01        		.uleb128 0x1
 1061 00ea 9C        		.byte	0x9c
 1062 00eb 0302 0000 		.long	0x203
 1063 00ef 08        		.uleb128 0x8
 1064 00f0 0000 0000 		.long	.LASF23
 1065 00f4 01        		.byte	0x1
 1066 00f5 6C        		.byte	0x6c
 1067 00f6 1D        		.byte	0x1d
 1068 00f7 5E00 0000 		.long	0x5e
 1069 00fb 0000 0000 		.long	.LLST16
 1070 00ff 0000 0000 		.long	.LVUS16
 1071 0103 09        		.uleb128 0x9
 1072 0104 0000 0000 		.long	.LASF24
 1073 0108 01        		.byte	0x1
 1074 0109 6D        		.byte	0x6d
 1075 010a 0D        		.byte	0xd
 1076 010b 3800 0000 		.long	0x38
 1077 010f 32        		.byte	0x32
 1078 0110 0A        		.uleb128 0xa
 1079 0111 0000 0000 		.long	.LASF17
 1080 0115 01        		.byte	0x1
 1081 0116 6E        		.byte	0x6e
 1082 0117 0D        		.byte	0xd
 1083 0118 3800 0000 		.long	0x38
 1084 011c 0000 0000 		.long	.LLST17
 1085 0120 0000 0000 		.long	.LVUS17
 1086 0124 0B        		.uleb128 0xb
 1087 0125 0000 0000 		.long	.Ldebug_ranges0+0x90
 1088 0129 F901 0000 		.long	0x1f9
 1089 012d 0C        		.uleb128 0xc
 1090 012e 6900      		.string	"i"
 1091 0130 01        		.byte	0x1
 1092 0131 70        		.byte	0x70
 1093 0132 13        		.byte	0x13
 1094 0133 5E00 0000 		.long	0x5e
 1095 0137 0000 0000 		.long	.LLST18
 1096 013b 0000 0000 		.long	.LVUS18
 1097 013f 0D        		.uleb128 0xd
 1098 0140 0000 0000 		.long	.Ldebug_ranges0+0xa8
 1099 0144 0A        		.uleb128 0xa
 1100 0145 0000 0000 		.long	.LASF18
 1101 0149 01        		.byte	0x1
 1102 014a 71        		.byte	0x71
 1103 014b 11        		.byte	0x11
 1104 014c 3800 0000 		.long	0x38
 1105 0150 0000 0000 		.long	.LLST19
 1106 0154 0000 0000 		.long	.LVUS19
 1107 0158 0A        		.uleb128 0xa
 1108 0159 0000 0000 		.long	.LASF19
 1109 015d 01        		.byte	0x1
 1110 015e 71        		.byte	0x71
GAS LISTING /var/folders/sh/lj4855x88xqgpw006s7bny180000gn/T//ccZ3NiRc.s 			page 32


 1111 015f 1E        		.byte	0x1e
 1112 0160 3800 0000 		.long	0x38
 1113 0164 0000 0000 		.long	.LLST20
 1114 0168 0000 0000 		.long	.LVUS20
 1115 016c 0B        		.uleb128 0xb
 1116 016d 0000 0000 		.long	.Ldebug_ranges0+0xc8
 1117 0171 9301 0000 		.long	0x193
 1118 0175 0A        		.uleb128 0xa
 1119 0176 0000 0000 		.long	.LASF20
 1120 017a 01        		.byte	0x1
 1121 017b 78        		.byte	0x78
 1122 017c 14        		.byte	0x14
 1123 017d 2500 0000 		.long	0x25
 1124 0181 0000 0000 		.long	.LLST21
 1125 0185 0000 0000 		.long	.LVUS21
 1126 0189 0E        		.uleb128 0xe
 1127 018a 0000 0000 		.long	.LVL63
 1128 018e 8D05 0000 		.long	0x58d
 1129 0192 00        		.byte	0
 1130 0193 0F        		.uleb128 0xf
 1131 0194 7104 0000 		.long	0x471
 1132 0198 0000 0000 		.long	.LBI43
 1133 019c 01        		.byte	.LVU197
 1134 019d 0000 0000 		.long	.LBB43
 1135 01a1 0400 0000 		.long	.LBE43-.LBB43
 1136 01a5 01        		.byte	0x1
 1137 01a6 7E        		.byte	0x7e
 1138 01a7 09        		.byte	0x9
 1139 01a8 C701 0000 		.long	0x1c7
 1140 01ac 10        		.uleb128 0x10
 1141 01ad 8A04 0000 		.long	0x48a
 1142 01b1 0000 0000 		.long	.LLST22
 1143 01b5 0000 0000 		.long	.LVUS22
 1144 01b9 10        		.uleb128 0x10
 1145 01ba 7E04 0000 		.long	0x47e
 1146 01be 0000 0000 		.long	.LLST23
 1147 01c2 0000 0000 		.long	.LVUS23
 1148 01c6 00        		.byte	0
 1149 01c7 0E        		.uleb128 0xe
 1150 01c8 0000 0000 		.long	.LVL52
 1151 01cc 8D05 0000 		.long	0x58d
 1152 01d0 0E        		.uleb128 0xe
 1153 01d1 0000 0000 		.long	.LVL54
 1154 01d5 8D05 0000 		.long	0x58d
 1155 01d9 0E        		.uleb128 0xe
 1156 01da 0000 0000 		.long	.LVL56
 1157 01de 8D05 0000 		.long	0x58d
 1158 01e2 11        		.uleb128 0x11
 1159 01e3 0000 0000 		.long	.LVL60
 1160 01e7 1404 0000 		.long	0x414
 1161 01eb 12        		.uleb128 0x12
 1162 01ec 06        		.uleb128 0x6
 1163 01ed 68        		.byte	0x68
 1164 01ee 93        		.byte	0x93
 1165 01ef 01        		.uleb128 0x1
 1166 01f0 69        		.byte	0x69
 1167 01f1 93        		.byte	0x93
GAS LISTING /var/folders/sh/lj4855x88xqgpw006s7bny180000gn/T//ccZ3NiRc.s 			page 33


 1168 01f2 01        		.uleb128 0x1
 1169 01f3 02        		.uleb128 0x2
 1170 01f4 08        		.byte	0x8
 1171 01f5 64        		.byte	0x64
 1172 01f6 00        		.byte	0
 1173 01f7 00        		.byte	0
 1174 01f8 00        		.byte	0
 1175 01f9 0E        		.uleb128 0xe
 1176 01fa 0000 0000 		.long	.LVL45
 1177 01fe 8D05 0000 		.long	0x58d
 1178 0202 00        		.byte	0
 1179 0203 07        		.uleb128 0x7
 1180 0204 0000 0000 		.long	.LASF22
 1181 0208 01        		.byte	0x1
 1182 0209 4C        		.byte	0x4c
 1183 020a 06        		.byte	0x6
 1184 020b 0000 0000 		.long	.LFB19
 1185 020f 0A01 0000 		.long	.LFE19-.LFB19
 1186 0213 01        		.uleb128 0x1
 1187 0214 9C        		.byte	0x9c
 1188 0215 2003 0000 		.long	0x320
 1189 0219 08        		.uleb128 0x8
 1190 021a 0000 0000 		.long	.LASF23
 1191 021e 01        		.byte	0x1
 1192 021f 4C        		.byte	0x4c
 1193 0220 1F        		.byte	0x1f
 1194 0221 5E00 0000 		.long	0x5e
 1195 0225 0000 0000 		.long	.LLST8
 1196 0229 0000 0000 		.long	.LVUS8
 1197 022d 09        		.uleb128 0x9
 1198 022e 0000 0000 		.long	.LASF25
 1199 0232 01        		.byte	0x1
 1200 0233 4D        		.byte	0x4d
 1201 0234 0D        		.byte	0xd
 1202 0235 3800 0000 		.long	0x38
 1203 0239 78        		.byte	0x78
 1204 023a 09        		.uleb128 0x9
 1205 023b 0000 0000 		.long	.LASF26
 1206 023f 01        		.byte	0x1
 1207 0240 4D        		.byte	0x4d
 1208 0241 1A        		.byte	0x1a
 1209 0242 3800 0000 		.long	0x38
 1210 0246 64        		.byte	0x64
 1211 0247 0A        		.uleb128 0xa
 1212 0248 0000 0000 		.long	.LASF27
 1213 024c 01        		.byte	0x1
 1214 024d 4E        		.byte	0x4e
 1215 024e 0D        		.byte	0xd
 1216 024f 3800 0000 		.long	0x38
 1217 0253 0000 0000 		.long	.LLST9
 1218 0257 0000 0000 		.long	.LVUS9
 1219 025b 0D        		.uleb128 0xd
 1220 025c 0000 0000 		.long	.Ldebug_ranges0+0x50
 1221 0260 0C        		.uleb128 0xc
 1222 0261 6900      		.string	"i"
 1223 0263 01        		.byte	0x1
 1224 0264 50        		.byte	0x50
GAS LISTING /var/folders/sh/lj4855x88xqgpw006s7bny180000gn/T//ccZ3NiRc.s 			page 34


 1225 0265 13        		.byte	0x13
 1226 0266 5E00 0000 		.long	0x5e
 1227 026a 0000 0000 		.long	.LLST10
 1228 026e 0000 0000 		.long	.LVUS10
 1229 0272 0D        		.uleb128 0xd
 1230 0273 0000 0000 		.long	.Ldebug_ranges0+0x70
 1231 0277 0A        		.uleb128 0xa
 1232 0278 0000 0000 		.long	.LASF20
 1233 027c 01        		.byte	0x1
 1234 027d 57        		.byte	0x57
 1235 027e 11        		.byte	0x11
 1236 027f 4B00 0000 		.long	0x4b
 1237 0283 0000 0000 		.long	.LLST11
 1238 0287 0000 0000 		.long	.LVUS11
 1239 028b 0A        		.uleb128 0xa
 1240 028c 0000 0000 		.long	.LASF28
 1241 0290 01        		.byte	0x1
 1242 0291 5F        		.byte	0x5f
 1243 0292 11        		.byte	0x11
 1244 0293 4B00 0000 		.long	0x4b
 1245 0297 0000 0000 		.long	.LLST12
 1246 029b 0000 0000 		.long	.LVUS12
 1247 029f 0A        		.uleb128 0xa
 1248 02a0 0000 0000 		.long	.LASF29
 1249 02a4 01        		.byte	0x1
 1250 02a5 60        		.byte	0x60
 1251 02a6 11        		.byte	0x11
 1252 02a7 4B00 0000 		.long	0x4b
 1253 02ab 0000 0000 		.long	.LLST13
 1254 02af 0000 0000 		.long	.LVUS13
 1255 02b3 0F        		.uleb128 0xf
 1256 02b4 7104 0000 		.long	0x471
 1257 02b8 0000 0000 		.long	.LBI34
 1258 02bc 00        		.byte	.LVU146
 1259 02bd 0000 0000 		.long	.LBB34
 1260 02c1 0400 0000 		.long	.LBE34-.LBB34
 1261 02c5 01        		.byte	0x1
 1262 02c6 66        		.byte	0x66
 1263 02c7 09        		.byte	0x9
 1264 02c8 E702 0000 		.long	0x2e7
 1265 02cc 10        		.uleb128 0x10
 1266 02cd 8A04 0000 		.long	0x48a
 1267 02d1 0000 0000 		.long	.LLST14
 1268 02d5 0000 0000 		.long	.LVUS14
 1269 02d9 10        		.uleb128 0x10
 1270 02da 7E04 0000 		.long	0x47e
 1271 02de 0000 0000 		.long	.LLST15
 1272 02e2 0000 0000 		.long	.LVUS15
 1273 02e6 00        		.byte	0
 1274 02e7 0E        		.uleb128 0xe
 1275 02e8 0000 0000 		.long	.LVL28
 1276 02ec 8D05 0000 		.long	0x58d
 1277 02f0 0E        		.uleb128 0xe
 1278 02f1 0000 0000 		.long	.LVL31
 1279 02f5 8D05 0000 		.long	0x58d
 1280 02f9 0E        		.uleb128 0xe
 1281 02fa 0000 0000 		.long	.LVL33
GAS LISTING /var/folders/sh/lj4855x88xqgpw006s7bny180000gn/T//ccZ3NiRc.s 			page 35


 1282 02fe 8D05 0000 		.long	0x58d
 1283 0302 0E        		.uleb128 0xe
 1284 0303 0000 0000 		.long	.LVL34
 1285 0307 8D05 0000 		.long	0x58d
 1286 030b 0E        		.uleb128 0xe
 1287 030c 0000 0000 		.long	.LVL40
 1288 0310 8D05 0000 		.long	0x58d
 1289 0314 0E        		.uleb128 0xe
 1290 0315 0000 0000 		.long	.LVL41
 1291 0319 1404 0000 		.long	0x414
 1292 031d 00        		.byte	0
 1293 031e 00        		.byte	0
 1294 031f 00        		.byte	0
 1295 0320 07        		.uleb128 0x7
 1296 0321 0000 0000 		.long	.LASF30
 1297 0325 01        		.byte	0x1
 1298 0326 34        		.byte	0x34
 1299 0327 06        		.byte	0x6
 1300 0328 0000 0000 		.long	.LFB18
 1301 032c AA00 0000 		.long	.LFE18-.LFB18
 1302 0330 01        		.uleb128 0x1
 1303 0331 9C        		.byte	0x9c
 1304 0332 1404 0000 		.long	0x414
 1305 0336 08        		.uleb128 0x8
 1306 0337 0000 0000 		.long	.LASF23
 1307 033b 01        		.byte	0x1
 1308 033c 34        		.byte	0x34
 1309 033d 1E        		.byte	0x1e
 1310 033e 5E00 0000 		.long	0x5e
 1311 0342 0000 0000 		.long	.LLST1
 1312 0346 0000 0000 		.long	.LVUS1
 1313 034a 13        		.uleb128 0x13
 1314 034b 0000 0000 		.long	.LASF24
 1315 034f 01        		.byte	0x1
 1316 0350 35        		.byte	0x35
 1317 0351 0D        		.byte	0xd
 1318 0352 3800 0000 		.long	0x38
 1319 0356 807F      		.sleb128 -128
 1320 0358 0D        		.uleb128 0xd
 1321 0359 0000 0000 		.long	.Ldebug_ranges0+0x18
 1322 035d 0C        		.uleb128 0xc
 1323 035e 6900      		.string	"i"
 1324 0360 01        		.byte	0x1
 1325 0361 36        		.byte	0x36
 1326 0362 13        		.byte	0x13
 1327 0363 5E00 0000 		.long	0x5e
 1328 0367 0000 0000 		.long	.LLST2
 1329 036b 0000 0000 		.long	.LVUS2
 1330 036f 0D        		.uleb128 0xd
 1331 0370 0000 0000 		.long	.Ldebug_ranges0+0x30
 1332 0374 0A        		.uleb128 0xa
 1333 0375 0000 0000 		.long	.LASF20
 1334 0379 01        		.byte	0x1
 1335 037a 37        		.byte	0x37
 1336 037b 11        		.byte	0x11
 1337 037c 4B00 0000 		.long	0x4b
 1338 0380 0000 0000 		.long	.LLST3
GAS LISTING /var/folders/sh/lj4855x88xqgpw006s7bny180000gn/T//ccZ3NiRc.s 			page 36


 1339 0384 0000 0000 		.long	.LVUS3
 1340 0388 0A        		.uleb128 0xa
 1341 0389 0000 0000 		.long	.LASF28
 1342 038d 01        		.byte	0x1
 1343 038e 3F        		.byte	0x3f
 1344 038f 11        		.byte	0x11
 1345 0390 4B00 0000 		.long	0x4b
 1346 0394 0000 0000 		.long	.LLST4
 1347 0398 0000 0000 		.long	.LVUS4
 1348 039c 0A        		.uleb128 0xa
 1349 039d 0000 0000 		.long	.LASF29
 1350 03a1 01        		.byte	0x1
 1351 03a2 40        		.byte	0x40
 1352 03a3 11        		.byte	0x11
 1353 03a4 4B00 0000 		.long	0x4b
 1354 03a8 0000 0000 		.long	.LLST5
 1355 03ac 0000 0000 		.long	.LVUS5
 1356 03b0 0F        		.uleb128 0xf
 1357 03b1 7104 0000 		.long	0x471
 1358 03b5 0000 0000 		.long	.LBI27
 1359 03b9 00        		.byte	.LVU70
 1360 03ba 0000 0000 		.long	.LBB27
 1361 03be 0400 0000 		.long	.LBE27-.LBB27
 1362 03c2 01        		.byte	0x1
 1363 03c3 46        		.byte	0x46
 1364 03c4 09        		.byte	0x9
 1365 03c5 E403 0000 		.long	0x3e4
 1366 03c9 10        		.uleb128 0x10
 1367 03ca 8A04 0000 		.long	0x48a
 1368 03ce 0000 0000 		.long	.LLST6
 1369 03d2 0000 0000 		.long	.LVUS6
 1370 03d6 10        		.uleb128 0x10
 1371 03d7 7E04 0000 		.long	0x47e
 1372 03db 0000 0000 		.long	.LLST7
 1373 03df 0000 0000 		.long	.LVUS7
 1374 03e3 00        		.byte	0
 1375 03e4 0E        		.uleb128 0xe
 1376 03e5 0000 0000 		.long	.LVL11
 1377 03e9 8D05 0000 		.long	0x58d
 1378 03ed 0E        		.uleb128 0xe
 1379 03ee 0000 0000 		.long	.LVL12
 1380 03f2 8D05 0000 		.long	0x58d
 1381 03f6 0E        		.uleb128 0xe
 1382 03f7 0000 0000 		.long	.LVL16
 1383 03fb 8D05 0000 		.long	0x58d
 1384 03ff 0E        		.uleb128 0xe
 1385 0400 0000 0000 		.long	.LVL17
 1386 0404 1404 0000 		.long	0x414
 1387 0408 0E        		.uleb128 0xe
 1388 0409 0000 0000 		.long	.LVL19
 1389 040d 8D05 0000 		.long	0x58d
 1390 0411 00        		.byte	0
 1391 0412 00        		.byte	0
 1392 0413 00        		.byte	0
 1393 0414 07        		.uleb128 0x7
 1394 0415 0000 0000 		.long	.LASF31
 1395 0419 01        		.byte	0x1
GAS LISTING /var/folders/sh/lj4855x88xqgpw006s7bny180000gn/T//ccZ3NiRc.s 			page 37


 1396 041a 2E        		.byte	0x2e
 1397 041b 06        		.byte	0x6
 1398 041c 0000 0000 		.long	.LFB17
 1399 0420 1800 0000 		.long	.LFE17-.LFB17
 1400 0424 01        		.uleb128 0x1
 1401 0425 9C        		.byte	0x9c
 1402 0426 7104 0000 		.long	0x471
 1403 042a 14        		.uleb128 0x14
 1404 042b 6D73 00   		.string	"ms"
 1405 042e 01        		.byte	0x1
 1406 042f 2E        		.byte	0x2e
 1407 0430 1F        		.byte	0x1f
 1408 0431 5E00 0000 		.long	0x5e
 1409 0435 0000 0000 		.long	.LLST0
 1410 0439 0000 0000 		.long	.LVUS0
 1411 043d 15        		.uleb128 0x15
 1412 043e 0605 0000 		.long	0x506
 1413 0442 0000 0000 		.long	.LBI21
 1414 0446 01        		.byte	.LVU25
 1415 0447 0000 0000 		.long	.Ldebug_ranges0+0
 1416 044b 01        		.byte	0x1
 1417 044c 30        		.byte	0x30
 1418 044d 09        		.byte	0x9
 1419 044e 16        		.uleb128 0x16
 1420 044f 1305 0000 		.long	0x513
 1421 0453 04        		.byte	0x4
 1422 0454 0000 803F 		.long	0x3f800000
 1423 0458 0D        		.uleb128 0xd
 1424 0459 0000 0000 		.long	.Ldebug_ranges0+0
 1425 045d 17        		.uleb128 0x17
 1426 045e 1F05 0000 		.long	0x51f
 1427 0462 04        		.byte	0x4
 1428 0463 0000 7A44 		.long	0x447a0000
 1429 0467 18        		.uleb128 0x18
 1430 0468 2B05 0000 		.long	0x52b
 1431 046c E803      		.word	0x3e8
 1432 046e 00        		.byte	0
 1433 046f 00        		.byte	0
 1434 0470 00        		.byte	0
 1435 0471 19        		.uleb128 0x19
 1436 0472 0000 0000 		.long	.LASF41
 1437 0476 01        		.byte	0x1
 1438 0477 29        		.byte	0x29
 1439 0478 06        		.byte	0x6
 1440 0479 01        		.byte	0x1
 1441 047a 9704 0000 		.long	0x497
 1442 047e 1A        		.uleb128 0x1a
 1443 047f 0000 0000 		.long	.LASF32
 1444 0483 01        		.byte	0x1
 1445 0484 29        		.byte	0x29
 1446 0485 21        		.byte	0x21
 1447 0486 3800 0000 		.long	0x38
 1448 048a 1A        		.uleb128 0x1a
 1449 048b 0000 0000 		.long	.LASF33
 1450 048f 01        		.byte	0x1
 1451 0490 29        		.byte	0x29
 1452 0491 2F        		.byte	0x2f
GAS LISTING /var/folders/sh/lj4855x88xqgpw006s7bny180000gn/T//ccZ3NiRc.s 			page 38


 1453 0492 3800 0000 		.long	0x38
 1454 0496 00        		.byte	0
 1455 0497 1B        		.uleb128 0x1b
 1456 0498 0000 0000 		.long	.LASF42
 1457 049c 01        		.byte	0x1
 1458 049d 21        		.byte	0x21
 1459 049e 06        		.byte	0x6
 1460 049f 0000 0000 		.long	.LFB15
 1461 04a3 1800 0000 		.long	.LFE15-.LFB15
 1462 04a7 01        		.uleb128 0x1
 1463 04a8 9C        		.byte	0x9c
 1464 04a9 1C        		.uleb128 0x1c
 1465 04aa 0000 0000 		.long	.LASF43
 1466 04ae 01        		.byte	0x1
 1467 04af 11        		.byte	0x11
 1468 04b0 05        		.byte	0x5
 1469 04b1 5700 0000 		.long	0x57
 1470 04b5 0000 0000 		.long	.LFB14
 1471 04b9 1A00 0000 		.long	.LFE14-.LFB14
 1472 04bd 01        		.uleb128 0x1
 1473 04be 9C        		.byte	0x9c
 1474 04bf 0605 0000 		.long	0x506
 1475 04c3 0E        		.uleb128 0xe
 1476 04c4 0000 0000 		.long	.LVL71
 1477 04c8 9704 0000 		.long	0x497
 1478 04cc 0E        		.uleb128 0xe
 1479 04cd 0000 0000 		.long	.LVL72
 1480 04d1 D900 0000 		.long	0xd9
 1481 04d5 1D        		.uleb128 0x1d
 1482 04d6 0000 0000 		.long	.LVL73
 1483 04da 2003 0000 		.long	0x320
 1484 04de EF04 0000 		.long	0x4ef
 1485 04e2 12        		.uleb128 0x12
 1486 04e3 06        		.uleb128 0x6
 1487 04e4 68        		.byte	0x68
 1488 04e5 93        		.byte	0x93
 1489 04e6 01        		.uleb128 0x1
 1490 04e7 69        		.byte	0x69
 1491 04e8 93        		.byte	0x93
 1492 04e9 01        		.uleb128 0x1
 1493 04ea 03        		.uleb128 0x3
 1494 04eb 0A        		.byte	0xa
 1495 04ec B80B      		.word	0xbb8
 1496 04ee 00        		.byte	0
 1497 04ef 11        		.uleb128 0x11
 1498 04f0 0000 0000 		.long	.LVL74
 1499 04f4 0302 0000 		.long	0x203
 1500 04f8 12        		.uleb128 0x12
 1501 04f9 06        		.uleb128 0x6
 1502 04fa 68        		.byte	0x68
 1503 04fb 93        		.byte	0x93
 1504 04fc 01        		.uleb128 0x1
 1505 04fd 69        		.byte	0x69
 1506 04fe 93        		.byte	0x93
 1507 04ff 01        		.uleb128 0x1
 1508 0500 03        		.uleb128 0x3
 1509 0501 0A        		.byte	0xa
GAS LISTING /var/folders/sh/lj4855x88xqgpw006s7bny180000gn/T//ccZ3NiRc.s 			page 39


 1510 0502 5802      		.word	0x258
 1511 0504 00        		.byte	0
 1512 0505 00        		.byte	0
 1513 0506 1E        		.uleb128 0x1e
 1514 0507 0000 0000 		.long	.LASF44
 1515 050b 02        		.byte	0x2
 1516 050c A6        		.byte	0xa6
 1517 050d 01        		.byte	0x1
 1518 050e 03        		.byte	0x3
 1519 050f 4605 0000 		.long	0x546
 1520 0513 1A        		.uleb128 0x1a
 1521 0514 0000 0000 		.long	.LASF34
 1522 0518 02        		.byte	0x2
 1523 0519 A6        		.byte	0xa6
 1524 051a 12        		.byte	0x12
 1525 051b 4605 0000 		.long	0x546
 1526 051f 1F        		.uleb128 0x1f
 1527 0520 0000 0000 		.long	.LASF35
 1528 0524 02        		.byte	0x2
 1529 0525 A8        		.byte	0xa8
 1530 0526 09        		.byte	0x9
 1531 0527 4605 0000 		.long	0x546
 1532 052b 1F        		.uleb128 0x1f
 1533 052c 0000 0000 		.long	.LASF36
 1534 0530 02        		.byte	0x2
 1535 0531 AC        		.byte	0xac
 1536 0532 0B        		.byte	0xb
 1537 0533 7800 0000 		.long	0x78
 1538 0537 20        		.uleb128 0x20
 1539 0538 0000 0000 		.long	.LASF45
 1540 053c 02        		.byte	0x2
 1541 053d AD        		.byte	0xad
 1542 053e 0E        		.byte	0xe
 1543 053f 21        		.uleb128 0x21
 1544 0540 8400 0000 		.long	0x84
 1545 0544 00        		.byte	0
 1546 0545 00        		.byte	0
 1547 0546 03        		.uleb128 0x3
 1548 0547 04        		.byte	0x4
 1549 0548 04        		.byte	0x4
 1550 0549 0000 0000 		.long	.LASF37
 1551 054d 22        		.uleb128 0x22
 1552 054e 0000 0000 		.long	.LASF46
 1553 0552 03        		.byte	0x3
 1554 0553 A8        		.byte	0xa8
 1555 0554 16        		.byte	0x16
 1556 0555 4605 0000 		.long	0x546
 1557 0559 03        		.byte	0x3
 1558 055a 6B05 0000 		.long	0x56b
 1559 055e 23        		.uleb128 0x23
 1560 055f 5F5F 7800 		.string	"__x"
 1561 0563 03        		.byte	0x3
 1562 0564 A8        		.byte	0xa8
 1563 0565 23        		.byte	0x23
 1564 0566 4605 0000 		.long	0x546
 1565 056a 00        		.byte	0
 1566 056b 24        		.uleb128 0x24
GAS LISTING /var/folders/sh/lj4855x88xqgpw006s7bny180000gn/T//ccZ3NiRc.s 			page 40


 1567 056c 7104 0000 		.long	0x471
 1568 0570 0000 0000 		.long	.LFB16
 1569 0574 0600 0000 		.long	.LFE16-.LFB16
 1570 0578 01        		.uleb128 0x1
 1571 0579 9C        		.byte	0x9c
 1572 057a 8D05 0000 		.long	0x58d
 1573 057e 25        		.uleb128 0x25
 1574 057f 7E04 0000 		.long	0x47e
 1575 0583 01        		.uleb128 0x1
 1576 0584 68        		.byte	0x68
 1577 0585 25        		.uleb128 0x25
 1578 0586 8A04 0000 		.long	0x48a
 1579 058a 01        		.uleb128 0x1
 1580 058b 66        		.byte	0x66
 1581 058c 00        		.byte	0
 1582 058d 26        		.uleb128 0x26
 1583 058e 0000 0000 		.long	.LASF47
 1584 0592 0000 0000 		.long	.LASF47
 1585 0596 06        		.byte	0x6
 1586 0597 7F01      		.word	0x17f
 1587 0599 0C        		.byte	0xc
 1588 059a 00        		.byte	0
 1589               		.section	.debug_abbrev,"",@progbits
 1590               	.Ldebug_abbrev0:
 1591 0000 01        		.uleb128 0x1
 1592 0001 11        		.uleb128 0x11
 1593 0002 01        		.byte	0x1
 1594 0003 25        		.uleb128 0x25
 1595 0004 0E        		.uleb128 0xe
 1596 0005 13        		.uleb128 0x13
 1597 0006 0B        		.uleb128 0xb
 1598 0007 03        		.uleb128 0x3
 1599 0008 0E        		.uleb128 0xe
 1600 0009 1B        		.uleb128 0x1b
 1601 000a 0E        		.uleb128 0xe
 1602 000b 55        		.uleb128 0x55
 1603 000c 17        		.uleb128 0x17
 1604 000d 11        		.uleb128 0x11
 1605 000e 01        		.uleb128 0x1
 1606 000f 10        		.uleb128 0x10
 1607 0010 17        		.uleb128 0x17
 1608 0011 00        		.byte	0
 1609 0012 00        		.byte	0
 1610 0013 02        		.uleb128 0x2
 1611 0014 16        		.uleb128 0x16
 1612 0015 00        		.byte	0
 1613 0016 03        		.uleb128 0x3
 1614 0017 0E        		.uleb128 0xe
 1615 0018 3A        		.uleb128 0x3a
 1616 0019 0B        		.uleb128 0xb
 1617 001a 3B        		.uleb128 0x3b
 1618 001b 0B        		.uleb128 0xb
 1619 001c 39        		.uleb128 0x39
 1620 001d 0B        		.uleb128 0xb
 1621 001e 49        		.uleb128 0x49
 1622 001f 13        		.uleb128 0x13
 1623 0020 00        		.byte	0
GAS LISTING /var/folders/sh/lj4855x88xqgpw006s7bny180000gn/T//ccZ3NiRc.s 			page 41


 1624 0021 00        		.byte	0
 1625 0022 03        		.uleb128 0x3
 1626 0023 24        		.uleb128 0x24
 1627 0024 00        		.byte	0
 1628 0025 0B        		.uleb128 0xb
 1629 0026 0B        		.uleb128 0xb
 1630 0027 3E        		.uleb128 0x3e
 1631 0028 0B        		.uleb128 0xb
 1632 0029 03        		.uleb128 0x3
 1633 002a 0E        		.uleb128 0xe
 1634 002b 00        		.byte	0
 1635 002c 00        		.byte	0
 1636 002d 04        		.uleb128 0x4
 1637 002e 24        		.uleb128 0x24
 1638 002f 00        		.byte	0
 1639 0030 0B        		.uleb128 0xb
 1640 0031 0B        		.uleb128 0xb
 1641 0032 3E        		.uleb128 0x3e
 1642 0033 0B        		.uleb128 0xb
 1643 0034 03        		.uleb128 0x3
 1644 0035 08        		.uleb128 0x8
 1645 0036 00        		.byte	0
 1646 0037 00        		.byte	0
 1647 0038 05        		.uleb128 0x5
 1648 0039 34        		.uleb128 0x34
 1649 003a 00        		.byte	0
 1650 003b 03        		.uleb128 0x3
 1651 003c 0E        		.uleb128 0xe
 1652 003d 3A        		.uleb128 0x3a
 1653 003e 0B        		.uleb128 0xb
 1654 003f 3B        		.uleb128 0x3b
 1655 0040 05        		.uleb128 0x5
 1656 0041 39        		.uleb128 0x39
 1657 0042 0B        		.uleb128 0xb
 1658 0043 49        		.uleb128 0x49
 1659 0044 13        		.uleb128 0x13
 1660 0045 3F        		.uleb128 0x3f
 1661 0046 19        		.uleb128 0x19
 1662 0047 3C        		.uleb128 0x3c
 1663 0048 19        		.uleb128 0x19
 1664 0049 00        		.byte	0
 1665 004a 00        		.byte	0
 1666 004b 06        		.uleb128 0x6
 1667 004c 0F        		.uleb128 0xf
 1668 004d 00        		.byte	0
 1669 004e 0B        		.uleb128 0xb
 1670 004f 0B        		.uleb128 0xb
 1671 0050 49        		.uleb128 0x49
 1672 0051 13        		.uleb128 0x13
 1673 0052 00        		.byte	0
 1674 0053 00        		.byte	0
 1675 0054 07        		.uleb128 0x7
 1676 0055 2E        		.uleb128 0x2e
 1677 0056 01        		.byte	0x1
 1678 0057 3F        		.uleb128 0x3f
 1679 0058 19        		.uleb128 0x19
 1680 0059 03        		.uleb128 0x3
GAS LISTING /var/folders/sh/lj4855x88xqgpw006s7bny180000gn/T//ccZ3NiRc.s 			page 42


 1681 005a 0E        		.uleb128 0xe
 1682 005b 3A        		.uleb128 0x3a
 1683 005c 0B        		.uleb128 0xb
 1684 005d 3B        		.uleb128 0x3b
 1685 005e 0B        		.uleb128 0xb
 1686 005f 39        		.uleb128 0x39
 1687 0060 0B        		.uleb128 0xb
 1688 0061 27        		.uleb128 0x27
 1689 0062 19        		.uleb128 0x19
 1690 0063 11        		.uleb128 0x11
 1691 0064 01        		.uleb128 0x1
 1692 0065 12        		.uleb128 0x12
 1693 0066 06        		.uleb128 0x6
 1694 0067 40        		.uleb128 0x40
 1695 0068 18        		.uleb128 0x18
 1696 0069 9742      		.uleb128 0x2117
 1697 006b 19        		.uleb128 0x19
 1698 006c 01        		.uleb128 0x1
 1699 006d 13        		.uleb128 0x13
 1700 006e 00        		.byte	0
 1701 006f 00        		.byte	0
 1702 0070 08        		.uleb128 0x8
 1703 0071 05        		.uleb128 0x5
 1704 0072 00        		.byte	0
 1705 0073 03        		.uleb128 0x3
 1706 0074 0E        		.uleb128 0xe
 1707 0075 3A        		.uleb128 0x3a
 1708 0076 0B        		.uleb128 0xb
 1709 0077 3B        		.uleb128 0x3b
 1710 0078 0B        		.uleb128 0xb
 1711 0079 39        		.uleb128 0x39
 1712 007a 0B        		.uleb128 0xb
 1713 007b 49        		.uleb128 0x49
 1714 007c 13        		.uleb128 0x13
 1715 007d 02        		.uleb128 0x2
 1716 007e 17        		.uleb128 0x17
 1717 007f B742      		.uleb128 0x2137
 1718 0081 17        		.uleb128 0x17
 1719 0082 00        		.byte	0
 1720 0083 00        		.byte	0
 1721 0084 09        		.uleb128 0x9
 1722 0085 34        		.uleb128 0x34
 1723 0086 00        		.byte	0
 1724 0087 03        		.uleb128 0x3
 1725 0088 0E        		.uleb128 0xe
 1726 0089 3A        		.uleb128 0x3a
 1727 008a 0B        		.uleb128 0xb
 1728 008b 3B        		.uleb128 0x3b
 1729 008c 0B        		.uleb128 0xb
 1730 008d 39        		.uleb128 0x39
 1731 008e 0B        		.uleb128 0xb
 1732 008f 49        		.uleb128 0x49
 1733 0090 13        		.uleb128 0x13
 1734 0091 1C        		.uleb128 0x1c
 1735 0092 0B        		.uleb128 0xb
 1736 0093 00        		.byte	0
 1737 0094 00        		.byte	0
GAS LISTING /var/folders/sh/lj4855x88xqgpw006s7bny180000gn/T//ccZ3NiRc.s 			page 43


 1738 0095 0A        		.uleb128 0xa
 1739 0096 34        		.uleb128 0x34
 1740 0097 00        		.byte	0
 1741 0098 03        		.uleb128 0x3
 1742 0099 0E        		.uleb128 0xe
 1743 009a 3A        		.uleb128 0x3a
 1744 009b 0B        		.uleb128 0xb
 1745 009c 3B        		.uleb128 0x3b
 1746 009d 0B        		.uleb128 0xb
 1747 009e 39        		.uleb128 0x39
 1748 009f 0B        		.uleb128 0xb
 1749 00a0 49        		.uleb128 0x49
 1750 00a1 13        		.uleb128 0x13
 1751 00a2 02        		.uleb128 0x2
 1752 00a3 17        		.uleb128 0x17
 1753 00a4 B742      		.uleb128 0x2137
 1754 00a6 17        		.uleb128 0x17
 1755 00a7 00        		.byte	0
 1756 00a8 00        		.byte	0
 1757 00a9 0B        		.uleb128 0xb
 1758 00aa 0B        		.uleb128 0xb
 1759 00ab 01        		.byte	0x1
 1760 00ac 55        		.uleb128 0x55
 1761 00ad 17        		.uleb128 0x17
 1762 00ae 01        		.uleb128 0x1
 1763 00af 13        		.uleb128 0x13
 1764 00b0 00        		.byte	0
 1765 00b1 00        		.byte	0
 1766 00b2 0C        		.uleb128 0xc
 1767 00b3 34        		.uleb128 0x34
 1768 00b4 00        		.byte	0
 1769 00b5 03        		.uleb128 0x3
 1770 00b6 08        		.uleb128 0x8
 1771 00b7 3A        		.uleb128 0x3a
 1772 00b8 0B        		.uleb128 0xb
 1773 00b9 3B        		.uleb128 0x3b
 1774 00ba 0B        		.uleb128 0xb
 1775 00bb 39        		.uleb128 0x39
 1776 00bc 0B        		.uleb128 0xb
 1777 00bd 49        		.uleb128 0x49
 1778 00be 13        		.uleb128 0x13
 1779 00bf 02        		.uleb128 0x2
 1780 00c0 17        		.uleb128 0x17
 1781 00c1 B742      		.uleb128 0x2137
 1782 00c3 17        		.uleb128 0x17
 1783 00c4 00        		.byte	0
 1784 00c5 00        		.byte	0
 1785 00c6 0D        		.uleb128 0xd
 1786 00c7 0B        		.uleb128 0xb
 1787 00c8 01        		.byte	0x1
 1788 00c9 55        		.uleb128 0x55
 1789 00ca 17        		.uleb128 0x17
 1790 00cb 00        		.byte	0
 1791 00cc 00        		.byte	0
 1792 00cd 0E        		.uleb128 0xe
 1793 00ce 8982 01   		.uleb128 0x4109
 1794 00d1 00        		.byte	0
GAS LISTING /var/folders/sh/lj4855x88xqgpw006s7bny180000gn/T//ccZ3NiRc.s 			page 44


 1795 00d2 11        		.uleb128 0x11
 1796 00d3 01        		.uleb128 0x1
 1797 00d4 31        		.uleb128 0x31
 1798 00d5 13        		.uleb128 0x13
 1799 00d6 00        		.byte	0
 1800 00d7 00        		.byte	0
 1801 00d8 0F        		.uleb128 0xf
 1802 00d9 1D        		.uleb128 0x1d
 1803 00da 01        		.byte	0x1
 1804 00db 31        		.uleb128 0x31
 1805 00dc 13        		.uleb128 0x13
 1806 00dd 52        		.uleb128 0x52
 1807 00de 01        		.uleb128 0x1
 1808 00df B842      		.uleb128 0x2138
 1809 00e1 0B        		.uleb128 0xb
 1810 00e2 11        		.uleb128 0x11
 1811 00e3 01        		.uleb128 0x1
 1812 00e4 12        		.uleb128 0x12
 1813 00e5 06        		.uleb128 0x6
 1814 00e6 58        		.uleb128 0x58
 1815 00e7 0B        		.uleb128 0xb
 1816 00e8 59        		.uleb128 0x59
 1817 00e9 0B        		.uleb128 0xb
 1818 00ea 57        		.uleb128 0x57
 1819 00eb 0B        		.uleb128 0xb
 1820 00ec 01        		.uleb128 0x1
 1821 00ed 13        		.uleb128 0x13
 1822 00ee 00        		.byte	0
 1823 00ef 00        		.byte	0
 1824 00f0 10        		.uleb128 0x10
 1825 00f1 05        		.uleb128 0x5
 1826 00f2 00        		.byte	0
 1827 00f3 31        		.uleb128 0x31
 1828 00f4 13        		.uleb128 0x13
 1829 00f5 02        		.uleb128 0x2
 1830 00f6 17        		.uleb128 0x17
 1831 00f7 B742      		.uleb128 0x2137
 1832 00f9 17        		.uleb128 0x17
 1833 00fa 00        		.byte	0
 1834 00fb 00        		.byte	0
 1835 00fc 11        		.uleb128 0x11
 1836 00fd 8982 01   		.uleb128 0x4109
 1837 0100 01        		.byte	0x1
 1838 0101 11        		.uleb128 0x11
 1839 0102 01        		.uleb128 0x1
 1840 0103 31        		.uleb128 0x31
 1841 0104 13        		.uleb128 0x13
 1842 0105 00        		.byte	0
 1843 0106 00        		.byte	0
 1844 0107 12        		.uleb128 0x12
 1845 0108 8A82 01   		.uleb128 0x410a
 1846 010b 00        		.byte	0
 1847 010c 02        		.uleb128 0x2
 1848 010d 18        		.uleb128 0x18
 1849 010e 9142      		.uleb128 0x2111
 1850 0110 18        		.uleb128 0x18
 1851 0111 00        		.byte	0
GAS LISTING /var/folders/sh/lj4855x88xqgpw006s7bny180000gn/T//ccZ3NiRc.s 			page 45


 1852 0112 00        		.byte	0
 1853 0113 13        		.uleb128 0x13
 1854 0114 34        		.uleb128 0x34
 1855 0115 00        		.byte	0
 1856 0116 03        		.uleb128 0x3
 1857 0117 0E        		.uleb128 0xe
 1858 0118 3A        		.uleb128 0x3a
 1859 0119 0B        		.uleb128 0xb
 1860 011a 3B        		.uleb128 0x3b
 1861 011b 0B        		.uleb128 0xb
 1862 011c 39        		.uleb128 0x39
 1863 011d 0B        		.uleb128 0xb
 1864 011e 49        		.uleb128 0x49
 1865 011f 13        		.uleb128 0x13
 1866 0120 1C        		.uleb128 0x1c
 1867 0121 0D        		.uleb128 0xd
 1868 0122 00        		.byte	0
 1869 0123 00        		.byte	0
 1870 0124 14        		.uleb128 0x14
 1871 0125 05        		.uleb128 0x5
 1872 0126 00        		.byte	0
 1873 0127 03        		.uleb128 0x3
 1874 0128 08        		.uleb128 0x8
 1875 0129 3A        		.uleb128 0x3a
 1876 012a 0B        		.uleb128 0xb
 1877 012b 3B        		.uleb128 0x3b
 1878 012c 0B        		.uleb128 0xb
 1879 012d 39        		.uleb128 0x39
 1880 012e 0B        		.uleb128 0xb
 1881 012f 49        		.uleb128 0x49
 1882 0130 13        		.uleb128 0x13
 1883 0131 02        		.uleb128 0x2
 1884 0132 17        		.uleb128 0x17
 1885 0133 B742      		.uleb128 0x2137
 1886 0135 17        		.uleb128 0x17
 1887 0136 00        		.byte	0
 1888 0137 00        		.byte	0
 1889 0138 15        		.uleb128 0x15
 1890 0139 1D        		.uleb128 0x1d
 1891 013a 01        		.byte	0x1
 1892 013b 31        		.uleb128 0x31
 1893 013c 13        		.uleb128 0x13
 1894 013d 52        		.uleb128 0x52
 1895 013e 01        		.uleb128 0x1
 1896 013f B842      		.uleb128 0x2138
 1897 0141 0B        		.uleb128 0xb
 1898 0142 55        		.uleb128 0x55
 1899 0143 17        		.uleb128 0x17
 1900 0144 58        		.uleb128 0x58
 1901 0145 0B        		.uleb128 0xb
 1902 0146 59        		.uleb128 0x59
 1903 0147 0B        		.uleb128 0xb
 1904 0148 57        		.uleb128 0x57
 1905 0149 0B        		.uleb128 0xb
 1906 014a 00        		.byte	0
 1907 014b 00        		.byte	0
 1908 014c 16        		.uleb128 0x16
GAS LISTING /var/folders/sh/lj4855x88xqgpw006s7bny180000gn/T//ccZ3NiRc.s 			page 46


 1909 014d 05        		.uleb128 0x5
 1910 014e 00        		.byte	0
 1911 014f 31        		.uleb128 0x31
 1912 0150 13        		.uleb128 0x13
 1913 0151 1C        		.uleb128 0x1c
 1914 0152 0A        		.uleb128 0xa
 1915 0153 00        		.byte	0
 1916 0154 00        		.byte	0
 1917 0155 17        		.uleb128 0x17
 1918 0156 34        		.uleb128 0x34
 1919 0157 00        		.byte	0
 1920 0158 31        		.uleb128 0x31
 1921 0159 13        		.uleb128 0x13
 1922 015a 1C        		.uleb128 0x1c
 1923 015b 0A        		.uleb128 0xa
 1924 015c 00        		.byte	0
 1925 015d 00        		.byte	0
 1926 015e 18        		.uleb128 0x18
 1927 015f 34        		.uleb128 0x34
 1928 0160 00        		.byte	0
 1929 0161 31        		.uleb128 0x31
 1930 0162 13        		.uleb128 0x13
 1931 0163 1C        		.uleb128 0x1c
 1932 0164 05        		.uleb128 0x5
 1933 0165 00        		.byte	0
 1934 0166 00        		.byte	0
 1935 0167 19        		.uleb128 0x19
 1936 0168 2E        		.uleb128 0x2e
 1937 0169 01        		.byte	0x1
 1938 016a 3F        		.uleb128 0x3f
 1939 016b 19        		.uleb128 0x19
 1940 016c 03        		.uleb128 0x3
 1941 016d 0E        		.uleb128 0xe
 1942 016e 3A        		.uleb128 0x3a
 1943 016f 0B        		.uleb128 0xb
 1944 0170 3B        		.uleb128 0x3b
 1945 0171 0B        		.uleb128 0xb
 1946 0172 39        		.uleb128 0x39
 1947 0173 0B        		.uleb128 0xb
 1948 0174 27        		.uleb128 0x27
 1949 0175 19        		.uleb128 0x19
 1950 0176 20        		.uleb128 0x20
 1951 0177 0B        		.uleb128 0xb
 1952 0178 01        		.uleb128 0x1
 1953 0179 13        		.uleb128 0x13
 1954 017a 00        		.byte	0
 1955 017b 00        		.byte	0
 1956 017c 1A        		.uleb128 0x1a
 1957 017d 05        		.uleb128 0x5
 1958 017e 00        		.byte	0
 1959 017f 03        		.uleb128 0x3
 1960 0180 0E        		.uleb128 0xe
 1961 0181 3A        		.uleb128 0x3a
 1962 0182 0B        		.uleb128 0xb
 1963 0183 3B        		.uleb128 0x3b
 1964 0184 0B        		.uleb128 0xb
 1965 0185 39        		.uleb128 0x39
GAS LISTING /var/folders/sh/lj4855x88xqgpw006s7bny180000gn/T//ccZ3NiRc.s 			page 47


 1966 0186 0B        		.uleb128 0xb
 1967 0187 49        		.uleb128 0x49
 1968 0188 13        		.uleb128 0x13
 1969 0189 00        		.byte	0
 1970 018a 00        		.byte	0
 1971 018b 1B        		.uleb128 0x1b
 1972 018c 2E        		.uleb128 0x2e
 1973 018d 00        		.byte	0
 1974 018e 3F        		.uleb128 0x3f
 1975 018f 19        		.uleb128 0x19
 1976 0190 03        		.uleb128 0x3
 1977 0191 0E        		.uleb128 0xe
 1978 0192 3A        		.uleb128 0x3a
 1979 0193 0B        		.uleb128 0xb
 1980 0194 3B        		.uleb128 0x3b
 1981 0195 0B        		.uleb128 0xb
 1982 0196 39        		.uleb128 0x39
 1983 0197 0B        		.uleb128 0xb
 1984 0198 27        		.uleb128 0x27
 1985 0199 19        		.uleb128 0x19
 1986 019a 11        		.uleb128 0x11
 1987 019b 01        		.uleb128 0x1
 1988 019c 12        		.uleb128 0x12
 1989 019d 06        		.uleb128 0x6
 1990 019e 40        		.uleb128 0x40
 1991 019f 18        		.uleb128 0x18
 1992 01a0 9742      		.uleb128 0x2117
 1993 01a2 19        		.uleb128 0x19
 1994 01a3 00        		.byte	0
 1995 01a4 00        		.byte	0
 1996 01a5 1C        		.uleb128 0x1c
 1997 01a6 2E        		.uleb128 0x2e
 1998 01a7 01        		.byte	0x1
 1999 01a8 3F        		.uleb128 0x3f
 2000 01a9 19        		.uleb128 0x19
 2001 01aa 03        		.uleb128 0x3
 2002 01ab 0E        		.uleb128 0xe
 2003 01ac 3A        		.uleb128 0x3a
 2004 01ad 0B        		.uleb128 0xb
 2005 01ae 3B        		.uleb128 0x3b
 2006 01af 0B        		.uleb128 0xb
 2007 01b0 39        		.uleb128 0x39
 2008 01b1 0B        		.uleb128 0xb
 2009 01b2 27        		.uleb128 0x27
 2010 01b3 19        		.uleb128 0x19
 2011 01b4 49        		.uleb128 0x49
 2012 01b5 13        		.uleb128 0x13
 2013 01b6 11        		.uleb128 0x11
 2014 01b7 01        		.uleb128 0x1
 2015 01b8 12        		.uleb128 0x12
 2016 01b9 06        		.uleb128 0x6
 2017 01ba 40        		.uleb128 0x40
 2018 01bb 18        		.uleb128 0x18
 2019 01bc 9742      		.uleb128 0x2117
 2020 01be 19        		.uleb128 0x19
 2021 01bf 01        		.uleb128 0x1
 2022 01c0 13        		.uleb128 0x13
GAS LISTING /var/folders/sh/lj4855x88xqgpw006s7bny180000gn/T//ccZ3NiRc.s 			page 48


 2023 01c1 00        		.byte	0
 2024 01c2 00        		.byte	0
 2025 01c3 1D        		.uleb128 0x1d
 2026 01c4 8982 01   		.uleb128 0x4109
 2027 01c7 01        		.byte	0x1
 2028 01c8 11        		.uleb128 0x11
 2029 01c9 01        		.uleb128 0x1
 2030 01ca 31        		.uleb128 0x31
 2031 01cb 13        		.uleb128 0x13
 2032 01cc 01        		.uleb128 0x1
 2033 01cd 13        		.uleb128 0x13
 2034 01ce 00        		.byte	0
 2035 01cf 00        		.byte	0
 2036 01d0 1E        		.uleb128 0x1e
 2037 01d1 2E        		.uleb128 0x2e
 2038 01d2 01        		.byte	0x1
 2039 01d3 03        		.uleb128 0x3
 2040 01d4 0E        		.uleb128 0xe
 2041 01d5 3A        		.uleb128 0x3a
 2042 01d6 0B        		.uleb128 0xb
 2043 01d7 3B        		.uleb128 0x3b
 2044 01d8 0B        		.uleb128 0xb
 2045 01d9 39        		.uleb128 0x39
 2046 01da 0B        		.uleb128 0xb
 2047 01db 27        		.uleb128 0x27
 2048 01dc 19        		.uleb128 0x19
 2049 01dd 20        		.uleb128 0x20
 2050 01de 0B        		.uleb128 0xb
 2051 01df 01        		.uleb128 0x1
 2052 01e0 13        		.uleb128 0x13
 2053 01e1 00        		.byte	0
 2054 01e2 00        		.byte	0
 2055 01e3 1F        		.uleb128 0x1f
 2056 01e4 34        		.uleb128 0x34
 2057 01e5 00        		.byte	0
 2058 01e6 03        		.uleb128 0x3
 2059 01e7 0E        		.uleb128 0xe
 2060 01e8 3A        		.uleb128 0x3a
 2061 01e9 0B        		.uleb128 0xb
 2062 01ea 3B        		.uleb128 0x3b
 2063 01eb 0B        		.uleb128 0xb
 2064 01ec 39        		.uleb128 0x39
 2065 01ed 0B        		.uleb128 0xb
 2066 01ee 49        		.uleb128 0x49
 2067 01ef 13        		.uleb128 0x13
 2068 01f0 00        		.byte	0
 2069 01f1 00        		.byte	0
 2070 01f2 20        		.uleb128 0x20
 2071 01f3 2E        		.uleb128 0x2e
 2072 01f4 01        		.byte	0x1
 2073 01f5 3F        		.uleb128 0x3f
 2074 01f6 19        		.uleb128 0x19
 2075 01f7 03        		.uleb128 0x3
 2076 01f8 0E        		.uleb128 0xe
 2077 01f9 3A        		.uleb128 0x3a
 2078 01fa 0B        		.uleb128 0xb
 2079 01fb 3B        		.uleb128 0x3b
GAS LISTING /var/folders/sh/lj4855x88xqgpw006s7bny180000gn/T//ccZ3NiRc.s 			page 49


 2080 01fc 0B        		.uleb128 0xb
 2081 01fd 39        		.uleb128 0x39
 2082 01fe 0B        		.uleb128 0xb
 2083 01ff 27        		.uleb128 0x27
 2084 0200 19        		.uleb128 0x19
 2085 0201 3C        		.uleb128 0x3c
 2086 0202 19        		.uleb128 0x19
 2087 0203 00        		.byte	0
 2088 0204 00        		.byte	0
 2089 0205 21        		.uleb128 0x21
 2090 0206 05        		.uleb128 0x5
 2091 0207 00        		.byte	0
 2092 0208 49        		.uleb128 0x49
 2093 0209 13        		.uleb128 0x13
 2094 020a 00        		.byte	0
 2095 020b 00        		.byte	0
 2096 020c 22        		.uleb128 0x22
 2097 020d 2E        		.uleb128 0x2e
 2098 020e 01        		.byte	0x1
 2099 020f 03        		.uleb128 0x3
 2100 0210 0E        		.uleb128 0xe
 2101 0211 3A        		.uleb128 0x3a
 2102 0212 0B        		.uleb128 0xb
 2103 0213 3B        		.uleb128 0x3b
 2104 0214 0B        		.uleb128 0xb
 2105 0215 39        		.uleb128 0x39
 2106 0216 0B        		.uleb128 0xb
 2107 0217 27        		.uleb128 0x27
 2108 0218 19        		.uleb128 0x19
 2109 0219 49        		.uleb128 0x49
 2110 021a 13        		.uleb128 0x13
 2111 021b 20        		.uleb128 0x20
 2112 021c 0B        		.uleb128 0xb
 2113 021d 01        		.uleb128 0x1
 2114 021e 13        		.uleb128 0x13
 2115 021f 00        		.byte	0
 2116 0220 00        		.byte	0
 2117 0221 23        		.uleb128 0x23
 2118 0222 05        		.uleb128 0x5
 2119 0223 00        		.byte	0
 2120 0224 03        		.uleb128 0x3
 2121 0225 08        		.uleb128 0x8
 2122 0226 3A        		.uleb128 0x3a
 2123 0227 0B        		.uleb128 0xb
 2124 0228 3B        		.uleb128 0x3b
 2125 0229 0B        		.uleb128 0xb
 2126 022a 39        		.uleb128 0x39
 2127 022b 0B        		.uleb128 0xb
 2128 022c 49        		.uleb128 0x49
 2129 022d 13        		.uleb128 0x13
 2130 022e 00        		.byte	0
 2131 022f 00        		.byte	0
 2132 0230 24        		.uleb128 0x24
 2133 0231 2E        		.uleb128 0x2e
 2134 0232 01        		.byte	0x1
 2135 0233 31        		.uleb128 0x31
 2136 0234 13        		.uleb128 0x13
GAS LISTING /var/folders/sh/lj4855x88xqgpw006s7bny180000gn/T//ccZ3NiRc.s 			page 50


 2137 0235 11        		.uleb128 0x11
 2138 0236 01        		.uleb128 0x1
 2139 0237 12        		.uleb128 0x12
 2140 0238 06        		.uleb128 0x6
 2141 0239 40        		.uleb128 0x40
 2142 023a 18        		.uleb128 0x18
 2143 023b 9742      		.uleb128 0x2117
 2144 023d 19        		.uleb128 0x19
 2145 023e 01        		.uleb128 0x1
 2146 023f 13        		.uleb128 0x13
 2147 0240 00        		.byte	0
 2148 0241 00        		.byte	0
 2149 0242 25        		.uleb128 0x25
 2150 0243 05        		.uleb128 0x5
 2151 0244 00        		.byte	0
 2152 0245 31        		.uleb128 0x31
 2153 0246 13        		.uleb128 0x13
 2154 0247 02        		.uleb128 0x2
 2155 0248 18        		.uleb128 0x18
 2156 0249 00        		.byte	0
 2157 024a 00        		.byte	0
 2158 024b 26        		.uleb128 0x26
 2159 024c 2E        		.uleb128 0x2e
 2160 024d 00        		.byte	0
 2161 024e 3F        		.uleb128 0x3f
 2162 024f 19        		.uleb128 0x19
 2163 0250 3C        		.uleb128 0x3c
 2164 0251 19        		.uleb128 0x19
 2165 0252 6E        		.uleb128 0x6e
 2166 0253 0E        		.uleb128 0xe
 2167 0254 03        		.uleb128 0x3
 2168 0255 0E        		.uleb128 0xe
 2169 0256 3A        		.uleb128 0x3a
 2170 0257 0B        		.uleb128 0xb
 2171 0258 3B        		.uleb128 0x3b
 2172 0259 05        		.uleb128 0x5
 2173 025a 39        		.uleb128 0x39
 2174 025b 0B        		.uleb128 0xb
 2175 025c 00        		.byte	0
 2176 025d 00        		.byte	0
 2177 025e 00        		.byte	0
 2178               		.section	.debug_loc,"",@progbits
 2179               	.Ldebug_loc0:
 2180               	.LVUS16:
 2181 0000 00        		.uleb128 0
 2182 0001 00        		.uleb128 .LVU164
 2183 0002 00        		.uleb128 .LVU164
 2184 0003 00        		.uleb128 .LVU178
 2185 0004 00        		.uleb128 .LVU178
 2186 0005 00        		.uleb128 .LVU180
 2187 0006 00        		.uleb128 .LVU180
 2188 0007 00        		.uleb128 0
 2189               	.LLST16:
 2190 0008 0000 0000 		.long	.LVL43
 2191 000c 0000 0000 		.long	.LVL45-1
 2192 0010 0600      		.word	0x6
 2193 0012 68        		.byte	0x68
GAS LISTING /var/folders/sh/lj4855x88xqgpw006s7bny180000gn/T//ccZ3NiRc.s 			page 51


 2194 0013 93        		.byte	0x93
 2195 0014 01        		.uleb128 0x1
 2196 0015 69        		.byte	0x69
 2197 0016 93        		.byte	0x93
 2198 0017 01        		.uleb128 0x1
 2199 0018 0000 0000 		.long	.LVL45-1
 2200 001c 0000 0000 		.long	.LVL49
 2201 0020 0600      		.word	0x6
 2202 0022 58        		.byte	0x58
 2203 0023 93        		.byte	0x93
 2204 0024 01        		.uleb128 0x1
 2205 0025 59        		.byte	0x59
 2206 0026 93        		.byte	0x93
 2207 0027 01        		.uleb128 0x1
 2208 0028 0000 0000 		.long	.LVL49
 2209 002c 0000 0000 		.long	.LVL51
 2210 0030 0400      		.word	0x4
 2211 0032 F3        		.byte	0xf3
 2212 0033 01        		.uleb128 0x1
 2213 0034 68        		.byte	0x68
 2214 0035 9F        		.byte	0x9f
 2215 0036 0000 0000 		.long	.LVL51
 2216 003a 0000 0000 		.long	.LFE20
 2217 003e 0600      		.word	0x6
 2218 0040 58        		.byte	0x58
 2219 0041 93        		.byte	0x93
 2220 0042 01        		.uleb128 0x1
 2221 0043 59        		.byte	0x59
 2222 0044 93        		.byte	0x93
 2223 0045 01        		.uleb128 0x1
 2224 0046 0000 0000 		.long	0
 2225 004a 0000 0000 		.long	0
 2226               	.LVUS17:
 2227 004e 00        		.uleb128 .LVU173
 2228 004f 00        		.uleb128 .LVU179
 2229 0050 00        		.uleb128 .LVU180
 2230 0051 00        		.uleb128 .LVU195
 2231 0052 00        		.uleb128 .LVU196
 2232 0053 00        		.uleb128 0
 2233               	.LLST17:
 2234 0054 0000 0000 		.long	.LVL47
 2235 0058 0000 0000 		.long	.LVL50
 2236 005c 0100      		.word	0x1
 2237 005e 57        		.byte	0x57
 2238 005f 0000 0000 		.long	.LVL51
 2239 0063 0000 0000 		.long	.LVL57
 2240 0067 0100      		.word	0x1
 2241 0069 57        		.byte	0x57
 2242 006a 0000 0000 		.long	.LVL58
 2243 006e 0000 0000 		.long	.LFE20
 2244 0072 0100      		.word	0x1
 2245 0074 57        		.byte	0x57
 2246 0075 0000 0000 		.long	0
 2247 0079 0000 0000 		.long	0
 2248               	.LVUS18:
 2249 007d 02        		.uleb128 .LVU168
 2250 007e 00        		.uleb128 .LVU173
GAS LISTING /var/folders/sh/lj4855x88xqgpw006s7bny180000gn/T//ccZ3NiRc.s 			page 52


 2251 007f 00        		.uleb128 .LVU173
 2252 0080 00        		.uleb128 .LVU177
 2253 0081 00        		.uleb128 .LVU180
 2254 0082 00        		.uleb128 0
 2255               	.LLST18:
 2256 0083 0000 0000 		.long	.LVL46
 2257 0087 0000 0000 		.long	.LVL47
 2258 008b 0200      		.word	0x2
 2259 008d 30        		.byte	0x30
 2260 008e 9F        		.byte	0x9f
 2261 008f 0000 0000 		.long	.LVL47
 2262 0093 0000 0000 		.long	.LVL48
 2263 0097 0600      		.word	0x6
 2264 0099 6C        		.byte	0x6c
 2265 009a 93        		.byte	0x93
 2266 009b 01        		.uleb128 0x1
 2267 009c 6D        		.byte	0x6d
 2268 009d 93        		.byte	0x93
 2269 009e 01        		.uleb128 0x1
 2270 009f 0000 0000 		.long	.LVL51
 2271 00a3 0000 0000 		.long	.LFE20
 2272 00a7 0600      		.word	0x6
 2273 00a9 6C        		.byte	0x6c
 2274 00aa 93        		.byte	0x93
 2275 00ab 01        		.uleb128 0x1
 2276 00ac 6D        		.byte	0x6d
 2277 00ad 93        		.byte	0x93
 2278 00ae 01        		.uleb128 0x1
 2279 00af 0000 0000 		.long	0
 2280 00b3 0000 0000 		.long	0
 2281               	.LVUS19:
 2282 00b7 00        		.uleb128 .LVU187
 2283 00b8 00        		.uleb128 .LVU207
 2284 00b9 00        		.uleb128 .LVU212
 2285 00ba 00        		.uleb128 0
 2286               	.LLST19:
 2287 00bb 0000 0000 		.long	.LVL53
 2288 00bf 0000 0000 		.long	.LVL62
 2289 00c3 0100      		.word	0x1
 2290 00c5 55        		.byte	0x55
 2291 00c6 0000 0000 		.long	.LVL65
 2292 00ca 0000 0000 		.long	.LFE20
 2293 00ce 0100      		.word	0x1
 2294 00d0 55        		.byte	0x55
 2295 00d1 0000 0000 		.long	0
 2296 00d5 0000 0000 		.long	0
 2297               	.LVUS20:
 2298 00d9 00        		.uleb128 .LVU191
 2299 00da 00        		.uleb128 .LVU207
 2300 00db 00        		.uleb128 .LVU218
 2301 00dc 00        		.uleb128 0
 2302               	.LLST20:
 2303 00dd 0000 0000 		.long	.LVL55
 2304 00e1 0000 0000 		.long	.LVL62
 2305 00e5 0100      		.word	0x1
 2306 00e7 56        		.byte	0x56
 2307 00e8 0000 0000 		.long	.LVL69
GAS LISTING /var/folders/sh/lj4855x88xqgpw006s7bny180000gn/T//ccZ3NiRc.s 			page 53


 2308 00ec 0000 0000 		.long	.LFE20
 2309 00f0 0100      		.word	0x1
 2310 00f2 56        		.byte	0x56
 2311 00f3 0000 0000 		.long	0
 2312 00f7 0000 0000 		.long	0
 2313               	.LVUS21:
 2314 00fb 00        		.uleb128 .LVU210
 2315 00fc 00        		.uleb128 .LVU214
 2316 00fd 00        		.uleb128 .LVU214
 2317 00fe 00        		.uleb128 .LVU215
 2318 00ff 00        		.uleb128 .LVU215
 2319 0100 00        		.uleb128 .LVU217
 2320               	.LLST21:
 2321 0101 0000 0000 		.long	.LVL64
 2322 0105 0000 0000 		.long	.LVL66
 2323 0109 0300      		.word	0x3
 2324 010b 88        		.byte	0x88
 2325 010c 76        		.sleb128 -10
 2326 010d 9F        		.byte	0x9f
 2327 010e 0000 0000 		.long	.LVL66
 2328 0112 0000 0000 		.long	.LVL67
 2329 0116 0100      		.word	0x1
 2330 0118 69        		.byte	0x69
 2331 0119 0000 0000 		.long	.LVL67
 2332 011d 0000 0000 		.long	.LVL68
 2333 0121 0300      		.word	0x3
 2334 0123 88        		.byte	0x88
 2335 0124 76        		.sleb128 -10
 2336 0125 9F        		.byte	0x9f
 2337 0126 0000 0000 		.long	0
 2338 012a 0000 0000 		.long	0
 2339               	.LVUS22:
 2340 012e 01        		.uleb128 .LVU197
 2341 012f 00        		.uleb128 .LVU202
 2342               	.LLST22:
 2343 0130 0000 0000 		.long	.LVL58
 2344 0134 0000 0000 		.long	.LVL59
 2345 0138 0100      		.word	0x1
 2346 013a 56        		.byte	0x56
 2347 013b 0000 0000 		.long	0
 2348 013f 0000 0000 		.long	0
 2349               	.LVUS23:
 2350 0143 01        		.uleb128 .LVU197
 2351 0144 00        		.uleb128 .LVU202
 2352               	.LLST23:
 2353 0145 0000 0000 		.long	.LVL58
 2354 0149 0000 0000 		.long	.LVL59
 2355 014d 0100      		.word	0x1
 2356 014f 55        		.byte	0x55
 2357 0150 0000 0000 		.long	0
 2358 0154 0000 0000 		.long	0
 2359               	.LVUS8:
 2360 0158 00        		.uleb128 0
 2361 0159 00        		.uleb128 .LVU101
 2362 015a 00        		.uleb128 .LVU101
 2363 015b 00        		.uleb128 .LVU106
 2364 015c 00        		.uleb128 .LVU106
GAS LISTING /var/folders/sh/lj4855x88xqgpw006s7bny180000gn/T//ccZ3NiRc.s 			page 54


 2365 015d 00        		.uleb128 .LVU108
 2366 015e 00        		.uleb128 .LVU108
 2367 015f 00        		.uleb128 0
 2368               	.LLST8:
 2369 0160 0000 0000 		.long	.LVL21
 2370 0164 0000 0000 		.long	.LVL23
 2371 0168 0600      		.word	0x6
 2372 016a 68        		.byte	0x68
 2373 016b 93        		.byte	0x93
 2374 016c 01        		.uleb128 0x1
 2375 016d 69        		.byte	0x69
 2376 016e 93        		.byte	0x93
 2377 016f 01        		.uleb128 0x1
 2378 0170 0000 0000 		.long	.LVL23
 2379 0174 0000 0000 		.long	.LVL25
 2380 0178 0600      		.word	0x6
 2381 017a 56        		.byte	0x56
 2382 017b 93        		.byte	0x93
 2383 017c 01        		.uleb128 0x1
 2384 017d 57        		.byte	0x57
 2385 017e 93        		.byte	0x93
 2386 017f 01        		.uleb128 0x1
 2387 0180 0000 0000 		.long	.LVL25
 2388 0184 0000 0000 		.long	.LVL27
 2389 0188 0400      		.word	0x4
 2390 018a F3        		.byte	0xf3
 2391 018b 01        		.uleb128 0x1
 2392 018c 68        		.byte	0x68
 2393 018d 9F        		.byte	0x9f
 2394 018e 0000 0000 		.long	.LVL27
 2395 0192 0000 0000 		.long	.LFE19
 2396 0196 0600      		.word	0x6
 2397 0198 56        		.byte	0x56
 2398 0199 93        		.byte	0x93
 2399 019a 01        		.uleb128 0x1
 2400 019b 57        		.byte	0x57
 2401 019c 93        		.byte	0x93
 2402 019d 01        		.uleb128 0x1
 2403 019e 0000 0000 		.long	0
 2404 01a2 0000 0000 		.long	0
 2405               	.LVUS9:
 2406 01a6 02        		.uleb128 .LVU92
 2407 01a7 00        		.uleb128 .LVU101
 2408 01a8 00        		.uleb128 .LVU101
 2409 01a9 00        		.uleb128 .LVU107
 2410 01aa 00        		.uleb128 .LVU108
 2411 01ab 00        		.uleb128 .LVU115
 2412 01ac 00        		.uleb128 .LVU116
 2413 01ad 00        		.uleb128 0
 2414               	.LLST9:
 2415 01ae 0000 0000 		.long	.LVL22
 2416 01b2 0000 0000 		.long	.LVL23
 2417 01b6 0200      		.word	0x2
 2418 01b8 30        		.byte	0x30
 2419 01b9 9F        		.byte	0x9f
 2420 01ba 0000 0000 		.long	.LVL23
 2421 01be 0000 0000 		.long	.LVL26
GAS LISTING /var/folders/sh/lj4855x88xqgpw006s7bny180000gn/T//ccZ3NiRc.s 			page 55


 2422 01c2 0100      		.word	0x1
 2423 01c4 53        		.byte	0x53
 2424 01c5 0000 0000 		.long	.LVL27
 2425 01c9 0000 0000 		.long	.LVL29
 2426 01cd 0100      		.word	0x1
 2427 01cf 53        		.byte	0x53
 2428 01d0 0000 0000 		.long	.LVL30
 2429 01d4 0000 0000 		.long	.LFE19
 2430 01d8 0100      		.word	0x1
 2431 01da 53        		.byte	0x53
 2432 01db 0000 0000 		.long	0
 2433 01df 0000 0000 		.long	0
 2434               	.LVUS10:
 2435 01e3 04        		.uleb128 .LVU94
 2436 01e4 00        		.uleb128 .LVU101
 2437 01e5 00        		.uleb128 .LVU101
 2438 01e6 00        		.uleb128 .LVU105
 2439 01e7 00        		.uleb128 .LVU108
 2440 01e8 00        		.uleb128 0
 2441               	.LLST10:
 2442 01e9 0000 0000 		.long	.LVL22
 2443 01ed 0000 0000 		.long	.LVL23
 2444 01f1 0200      		.word	0x2
 2445 01f3 30        		.byte	0x30
 2446 01f4 9F        		.byte	0x9f
 2447 01f5 0000 0000 		.long	.LVL23
 2448 01f9 0000 0000 		.long	.LVL24
 2449 01fd 0600      		.word	0x6
 2450 01ff 6C        		.byte	0x6c
 2451 0200 93        		.byte	0x93
 2452 0201 01        		.uleb128 0x1
 2453 0202 6D        		.byte	0x6d
 2454 0203 93        		.byte	0x93
 2455 0204 01        		.uleb128 0x1
 2456 0205 0000 0000 		.long	.LVL27
 2457 0209 0000 0000 		.long	.LFE19
 2458 020d 0600      		.word	0x6
 2459 020f 6C        		.byte	0x6c
 2460 0210 93        		.byte	0x93
 2461 0211 01        		.uleb128 0x1
 2462 0212 6D        		.byte	0x6d
 2463 0213 93        		.byte	0x93
 2464 0214 01        		.uleb128 0x1
 2465 0215 0000 0000 		.long	0
 2466 0219 0000 0000 		.long	0
 2467               	.LVUS11:
 2468 021d 00        		.uleb128 .LVU122
 2469 021e 00        		.uleb128 0
 2470               	.LLST11:
 2471 021f 0000 0000 		.long	.LVL32
 2472 0223 0000 0000 		.long	.LFE19
 2473 0227 0600      		.word	0x6
 2474 0229 54        		.byte	0x54
 2475 022a 93        		.byte	0x93
 2476 022b 01        		.uleb128 0x1
 2477 022c 55        		.byte	0x55
 2478 022d 93        		.byte	0x93
GAS LISTING /var/folders/sh/lj4855x88xqgpw006s7bny180000gn/T//ccZ3NiRc.s 			page 56


 2479 022e 01        		.uleb128 0x1
 2480 022f 0000 0000 		.long	0
 2481 0233 0000 0000 		.long	0
 2482               	.LVUS12:
 2483 0237 01        		.uleb128 .LVU132
 2484 0238 03        		.uleb128 .LVU134
 2485 0239 03        		.uleb128 .LVU134
 2486 023a 00        		.uleb128 0
 2487               	.LLST12:
 2488 023b 0000 0000 		.long	.LVL35
 2489 023f 0000 0000 		.long	.LVL35
 2490 0243 0400      		.word	0x4
 2491 0245 74        		.byte	0x74
 2492 0246 F800      		.sleb128 120
 2493 0248 9F        		.byte	0x9f
 2494 0249 0000 0000 		.long	.LVL35
 2495 024d 0000 0000 		.long	.LFE19
 2496 0251 2100      		.word	0x21
 2497 0253 74        		.byte	0x74
 2498 0254 F800      		.sleb128 120
 2499 0256 12        		.byte	0x12
 2500 0257 40        		.byte	0x40
 2501 0258 24        		.byte	0x24
 2502 0259 08        		.byte	0x8
 2503 025a FF        		.byte	0xff
 2504 025b 16        		.byte	0x16
 2505 025c 14        		.byte	0x14
 2506 025d 40        		.byte	0x40
 2507 025e 24        		.byte	0x24
 2508 025f 2D        		.byte	0x2d
 2509 0260 28        		.byte	0x28
 2510 0261 0100      		.word	0x1
 2511 0263 16        		.byte	0x16
 2512 0264 13        		.byte	0x13
 2513 0265 12        		.byte	0x12
 2514 0266 40        		.byte	0x40
 2515 0267 24        		.byte	0x24
 2516 0268 30        		.byte	0x30
 2517 0269 16        		.byte	0x16
 2518 026a 14        		.byte	0x14
 2519 026b 40        		.byte	0x40
 2520 026c 24        		.byte	0x24
 2521 026d 2B        		.byte	0x2b
 2522 026e 28        		.byte	0x28
 2523 026f 0100      		.word	0x1
 2524 0271 16        		.byte	0x16
 2525 0272 13        		.byte	0x13
 2526 0273 9F        		.byte	0x9f
 2527 0274 0000 0000 		.long	0
 2528 0278 0000 0000 		.long	0
 2529               	.LVUS13:
 2530 027c 02        		.uleb128 .LVU133
 2531 027d 04        		.uleb128 .LVU135
 2532 027e 04        		.uleb128 .LVU135
 2533 027f 00        		.uleb128 .LVU137
 2534 0280 00        		.uleb128 .LVU137
 2535 0281 00        		.uleb128 .LVU140
GAS LISTING /var/folders/sh/lj4855x88xqgpw006s7bny180000gn/T//ccZ3NiRc.s 			page 57


 2536 0282 00        		.uleb128 .LVU140
 2537 0283 00        		.uleb128 0
 2538               	.LLST13:
 2539 0284 0000 0000 		.long	.LVL35
 2540 0288 0000 0000 		.long	.LVL35
 2541 028c 0900      		.word	0x9
 2542 028e 74        		.byte	0x74
 2543 028f 00        		.sleb128 0
 2544 0290 33        		.byte	0x33
 2545 0291 1E        		.byte	0x1e
 2546 0292 34        		.byte	0x34
 2547 0293 1B        		.byte	0x1b
 2548 0294 23        		.byte	0x23
 2549 0295 64        		.uleb128 0x64
 2550 0296 9F        		.byte	0x9f
 2551 0297 0000 0000 		.long	.LVL35
 2552 029b 0000 0000 		.long	.LVL36
 2553 029f 2600      		.word	0x26
 2554 02a1 74        		.byte	0x74
 2555 02a2 00        		.sleb128 0
 2556 02a3 33        		.byte	0x33
 2557 02a4 1E        		.byte	0x1e
 2558 02a5 34        		.byte	0x34
 2559 02a6 1B        		.byte	0x1b
 2560 02a7 23        		.byte	0x23
 2561 02a8 64        		.uleb128 0x64
 2562 02a9 12        		.byte	0x12
 2563 02aa 40        		.byte	0x40
 2564 02ab 24        		.byte	0x24
 2565 02ac 08        		.byte	0x8
 2566 02ad FF        		.byte	0xff
 2567 02ae 16        		.byte	0x16
 2568 02af 14        		.byte	0x14
 2569 02b0 40        		.byte	0x40
 2570 02b1 24        		.byte	0x24
 2571 02b2 2D        		.byte	0x2d
 2572 02b3 28        		.byte	0x28
 2573 02b4 0100      		.word	0x1
 2574 02b6 16        		.byte	0x16
 2575 02b7 13        		.byte	0x13
 2576 02b8 12        		.byte	0x12
 2577 02b9 40        		.byte	0x40
 2578 02ba 24        		.byte	0x24
 2579 02bb 30        		.byte	0x30
 2580 02bc 16        		.byte	0x16
 2581 02bd 14        		.byte	0x14
 2582 02be 40        		.byte	0x40
 2583 02bf 24        		.byte	0x24
 2584 02c0 2B        		.byte	0x2b
 2585 02c1 28        		.byte	0x28
 2586 02c2 0100      		.word	0x1
 2587 02c4 16        		.byte	0x16
 2588 02c5 13        		.byte	0x13
 2589 02c6 9F        		.byte	0x9f
 2590 02c7 0000 0000 		.long	.LVL36
 2591 02cb 0000 0000 		.long	.LVL37
 2592 02cf 2400      		.word	0x24
GAS LISTING /var/folders/sh/lj4855x88xqgpw006s7bny180000gn/T//ccZ3NiRc.s 			page 58


 2593 02d1 88        		.byte	0x88
 2594 02d2 00        		.sleb128 0
 2595 02d3 34        		.byte	0x34
 2596 02d4 1B        		.byte	0x1b
 2597 02d5 23        		.byte	0x23
 2598 02d6 64        		.uleb128 0x64
 2599 02d7 12        		.byte	0x12
 2600 02d8 40        		.byte	0x40
 2601 02d9 24        		.byte	0x24
 2602 02da 08        		.byte	0x8
 2603 02db FF        		.byte	0xff
 2604 02dc 16        		.byte	0x16
 2605 02dd 14        		.byte	0x14
 2606 02de 40        		.byte	0x40
 2607 02df 24        		.byte	0x24
 2608 02e0 2D        		.byte	0x2d
 2609 02e1 28        		.byte	0x28
 2610 02e2 0100      		.word	0x1
 2611 02e4 16        		.byte	0x16
 2612 02e5 13        		.byte	0x13
 2613 02e6 12        		.byte	0x12
 2614 02e7 40        		.byte	0x40
 2615 02e8 24        		.byte	0x24
 2616 02e9 30        		.byte	0x30
 2617 02ea 16        		.byte	0x16
 2618 02eb 14        		.byte	0x14
 2619 02ec 40        		.byte	0x40
 2620 02ed 24        		.byte	0x24
 2621 02ee 2B        		.byte	0x2b
 2622 02ef 28        		.byte	0x28
 2623 02f0 0100      		.word	0x1
 2624 02f2 16        		.byte	0x16
 2625 02f3 13        		.byte	0x13
 2626 02f4 9F        		.byte	0x9f
 2627 02f5 0000 0000 		.long	.LVL37
 2628 02f9 0000 0000 		.long	.LFE19
 2629 02fd 2600      		.word	0x26
 2630 02ff 74        		.byte	0x74
 2631 0300 00        		.sleb128 0
 2632 0301 33        		.byte	0x33
 2633 0302 1E        		.byte	0x1e
 2634 0303 34        		.byte	0x34
 2635 0304 1B        		.byte	0x1b
 2636 0305 23        		.byte	0x23
 2637 0306 64        		.uleb128 0x64
 2638 0307 12        		.byte	0x12
 2639 0308 40        		.byte	0x40
 2640 0309 24        		.byte	0x24
 2641 030a 08        		.byte	0x8
 2642 030b FF        		.byte	0xff
 2643 030c 16        		.byte	0x16
 2644 030d 14        		.byte	0x14
 2645 030e 40        		.byte	0x40
 2646 030f 24        		.byte	0x24
 2647 0310 2D        		.byte	0x2d
 2648 0311 28        		.byte	0x28
 2649 0312 0100      		.word	0x1
GAS LISTING /var/folders/sh/lj4855x88xqgpw006s7bny180000gn/T//ccZ3NiRc.s 			page 59


 2650 0314 16        		.byte	0x16
 2651 0315 13        		.byte	0x13
 2652 0316 12        		.byte	0x12
 2653 0317 40        		.byte	0x40
 2654 0318 24        		.byte	0x24
 2655 0319 30        		.byte	0x30
 2656 031a 16        		.byte	0x16
 2657 031b 14        		.byte	0x14
 2658 031c 40        		.byte	0x40
 2659 031d 24        		.byte	0x24
 2660 031e 2B        		.byte	0x2b
 2661 031f 28        		.byte	0x28
 2662 0320 0100      		.word	0x1
 2663 0322 16        		.byte	0x16
 2664 0323 13        		.byte	0x13
 2665 0324 9F        		.byte	0x9f
 2666 0325 0000 0000 		.long	0
 2667 0329 0000 0000 		.long	0
 2668               	.LVUS14:
 2669 032d 00        		.uleb128 .LVU146
 2670 032e 00        		.uleb128 .LVU151
 2671               	.LLST14:
 2672 032f 0000 0000 		.long	.LVL38
 2673 0333 0000 0000 		.long	.LVL39
 2674 0337 0100      		.word	0x1
 2675 0339 62        		.byte	0x62
 2676 033a 0000 0000 		.long	0
 2677 033e 0000 0000 		.long	0
 2678               	.LVUS15:
 2679 0342 00        		.uleb128 .LVU146
 2680 0343 00        		.uleb128 .LVU151
 2681               	.LLST15:
 2682 0344 0000 0000 		.long	.LVL38
 2683 0348 0000 0000 		.long	.LVL39
 2684 034c 0100      		.word	0x1
 2685 034e 68        		.byte	0x68
 2686 034f 0000 0000 		.long	0
 2687 0353 0000 0000 		.long	0
 2688               	.LVUS1:
 2689 0357 00        		.uleb128 0
 2690 0358 00        		.uleb128 .LVU46
 2691 0359 00        		.uleb128 .LVU46
 2692 035a 00        		.uleb128 .LVU51
 2693 035b 00        		.uleb128 .LVU51
 2694 035c 00        		.uleb128 .LVU52
 2695 035d 00        		.uleb128 .LVU52
 2696 035e 00        		.uleb128 0
 2697               	.LLST1:
 2698 035f 0000 0000 		.long	.LVL5
 2699 0363 0000 0000 		.long	.LVL7
 2700 0367 0600      		.word	0x6
 2701 0369 68        		.byte	0x68
 2702 036a 93        		.byte	0x93
 2703 036b 01        		.uleb128 0x1
 2704 036c 69        		.byte	0x69
 2705 036d 93        		.byte	0x93
 2706 036e 01        		.uleb128 0x1
GAS LISTING /var/folders/sh/lj4855x88xqgpw006s7bny180000gn/T//ccZ3NiRc.s 			page 60


 2707 036f 0000 0000 		.long	.LVL7
 2708 0373 0000 0000 		.long	.LVL9
 2709 0377 0600      		.word	0x6
 2710 0379 56        		.byte	0x56
 2711 037a 93        		.byte	0x93
 2712 037b 01        		.uleb128 0x1
 2713 037c 57        		.byte	0x57
 2714 037d 93        		.byte	0x93
 2715 037e 01        		.uleb128 0x1
 2716 037f 0000 0000 		.long	.LVL9
 2717 0383 0000 0000 		.long	.LVL10
 2718 0387 0400      		.word	0x4
 2719 0389 F3        		.byte	0xf3
 2720 038a 01        		.uleb128 0x1
 2721 038b 68        		.byte	0x68
 2722 038c 9F        		.byte	0x9f
 2723 038d 0000 0000 		.long	.LVL10
 2724 0391 0000 0000 		.long	.LFE18
 2725 0395 0600      		.word	0x6
 2726 0397 56        		.byte	0x56
 2727 0398 93        		.byte	0x93
 2728 0399 01        		.uleb128 0x1
 2729 039a 57        		.byte	0x57
 2730 039b 93        		.byte	0x93
 2731 039c 01        		.uleb128 0x1
 2732 039d 0000 0000 		.long	0
 2733 03a1 0000 0000 		.long	0
 2734               	.LVUS2:
 2735 03a5 03        		.uleb128 .LVU40
 2736 03a6 00        		.uleb128 .LVU46
 2737 03a7 00        		.uleb128 .LVU46
 2738 03a8 00        		.uleb128 .LVU50
 2739 03a9 00        		.uleb128 .LVU52
 2740 03aa 00        		.uleb128 0
 2741               	.LLST2:
 2742 03ab 0000 0000 		.long	.LVL6
 2743 03af 0000 0000 		.long	.LVL7
 2744 03b3 0200      		.word	0x2
 2745 03b5 30        		.byte	0x30
 2746 03b6 9F        		.byte	0x9f
 2747 03b7 0000 0000 		.long	.LVL7
 2748 03bb 0000 0000 		.long	.LVL8
 2749 03bf 0600      		.word	0x6
 2750 03c1 6C        		.byte	0x6c
 2751 03c2 93        		.byte	0x93
 2752 03c3 01        		.uleb128 0x1
 2753 03c4 6D        		.byte	0x6d
 2754 03c5 93        		.byte	0x93
 2755 03c6 01        		.uleb128 0x1
 2756 03c7 0000 0000 		.long	.LVL10
 2757 03cb 0000 0000 		.long	.LFE18
 2758 03cf 0600      		.word	0x6
 2759 03d1 6C        		.byte	0x6c
 2760 03d2 93        		.byte	0x93
 2761 03d3 01        		.uleb128 0x1
 2762 03d4 6D        		.byte	0x6d
 2763 03d5 93        		.byte	0x93
GAS LISTING /var/folders/sh/lj4855x88xqgpw006s7bny180000gn/T//ccZ3NiRc.s 			page 61


 2764 03d6 01        		.uleb128 0x1
 2765 03d7 0000 0000 		.long	0
 2766 03db 0000 0000 		.long	0
 2767               	.LVUS3:
 2768 03df 00        		.uleb128 .LVU61
 2769 03e0 00        		.uleb128 .LVU70
 2770 03e1 00        		.uleb128 .LVU70
 2771 03e2 00        		.uleb128 .LVU78
 2772 03e3 00        		.uleb128 .LVU87
 2773 03e4 00        		.uleb128 0
 2774               	.LLST3:
 2775 03e5 0000 0000 		.long	.LVL13
 2776 03e9 0000 0000 		.long	.LVL14
 2777 03ed 0600      		.word	0x6
 2778 03ef 62        		.byte	0x62
 2779 03f0 93        		.byte	0x93
 2780 03f1 01        		.uleb128 0x1
 2781 03f2 63        		.byte	0x63
 2782 03f3 93        		.byte	0x93
 2783 03f4 01        		.uleb128 0x1
 2784 03f5 0000 0000 		.long	.LVL14
 2785 03f9 0000 0000 		.long	.LVL16-1
 2786 03fd 0400      		.word	0x4
 2787 03ff 82        		.byte	0x82
 2788 0400 807F      		.sleb128 -128
 2789 0402 9F        		.byte	0x9f
 2790 0403 0000 0000 		.long	.LVL20
 2791 0407 0000 0000 		.long	.LFE18
 2792 040b 0600      		.word	0x6
 2793 040d 62        		.byte	0x62
 2794 040e 93        		.byte	0x93
 2795 040f 01        		.uleb128 0x1
 2796 0410 63        		.byte	0x63
 2797 0411 93        		.byte	0x93
 2798 0412 01        		.uleb128 0x1
 2799 0413 0000 0000 		.long	0
 2800 0417 0000 0000 		.long	0
 2801               	.LVUS4:
 2802 041b 01        		.uleb128 .LVU62
 2803 041c 00        		.uleb128 .LVU70
 2804 041d 00        		.uleb128 .LVU70
 2805 041e 00        		.uleb128 .LVU78
 2806               	.LLST4:
 2807 041f 0000 0000 		.long	.LVL13
 2808 0423 0000 0000 		.long	.LVL14
 2809 0427 0400      		.word	0x4
 2810 0429 82        		.byte	0x82
 2811 042a 8001      		.sleb128 128
 2812 042c 9F        		.byte	0x9f
 2813 042d 0000 0000 		.long	.LVL14
 2814 0431 0000 0000 		.long	.LVL16-1
 2815 0435 0600      		.word	0x6
 2816 0437 62        		.byte	0x62
 2817 0438 93        		.byte	0x93
 2818 0439 01        		.uleb128 0x1
 2819 043a 63        		.byte	0x63
 2820 043b 93        		.byte	0x93
GAS LISTING /var/folders/sh/lj4855x88xqgpw006s7bny180000gn/T//ccZ3NiRc.s 			page 62


 2821 043c 01        		.uleb128 0x1
 2822 043d 0000 0000 		.long	0
 2823 0441 0000 0000 		.long	0
 2824               	.LVUS5:
 2825 0445 02        		.uleb128 .LVU63
 2826 0446 00        		.uleb128 .LVU70
 2827 0447 00        		.uleb128 .LVU70
 2828 0448 00        		.uleb128 .LVU78
 2829               	.LLST5:
 2830 0449 0000 0000 		.long	.LVL13
 2831 044d 0000 0000 		.long	.LVL14
 2832 0451 0A00      		.word	0xa
 2833 0453 82        		.byte	0x82
 2834 0454 00        		.sleb128 0
 2835 0455 31        		.byte	0x31
 2836 0456 24        		.byte	0x24
 2837 0457 33        		.byte	0x33
 2838 0458 1B        		.byte	0x1b
 2839 0459 23        		.byte	0x23
 2840 045a 8001      		.uleb128 0x80
 2841 045c 9F        		.byte	0x9f
 2842 045d 0000 0000 		.long	.LVL14
 2843 0461 0000 0000 		.long	.LVL16-1
 2844 0465 0B00      		.word	0xb
 2845 0467 82        		.byte	0x82
 2846 0468 807F      		.sleb128 -128
 2847 046a 31        		.byte	0x31
 2848 046b 24        		.byte	0x24
 2849 046c 33        		.byte	0x33
 2850 046d 1B        		.byte	0x1b
 2851 046e 23        		.byte	0x23
 2852 046f 8001      		.uleb128 0x80
 2853 0471 9F        		.byte	0x9f
 2854 0472 0000 0000 		.long	0
 2855 0476 0000 0000 		.long	0
 2856               	.LVUS6:
 2857 047a 00        		.uleb128 .LVU70
 2858 047b 00        		.uleb128 .LVU75
 2859               	.LLST6:
 2860 047c 0000 0000 		.long	.LVL14
 2861 0480 0000 0000 		.long	.LVL15
 2862 0484 0100      		.word	0x1
 2863 0486 66        		.byte	0x66
 2864 0487 0000 0000 		.long	0
 2865 048b 0000 0000 		.long	0
 2866               	.LVUS7:
 2867 048f 00        		.uleb128 .LVU70
 2868 0490 00        		.uleb128 .LVU75
 2869               	.LLST7:
 2870 0491 0000 0000 		.long	.LVL14
 2871 0495 0000 0000 		.long	.LVL15
 2872 0499 0100      		.word	0x1
 2873 049b 62        		.byte	0x62
 2874 049c 0000 0000 		.long	0
 2875 04a0 0000 0000 		.long	0
 2876               	.LVUS0:
 2877 04a4 00        		.uleb128 0
GAS LISTING /var/folders/sh/lj4855x88xqgpw006s7bny180000gn/T//ccZ3NiRc.s 			page 63


 2878 04a5 01        		.uleb128 .LVU21
 2879 04a6 01        		.uleb128 .LVU21
 2880 04a7 00        		.uleb128 0
 2881               	.LLST0:
 2882 04a8 0000 0000 		.long	.LVL1
 2883 04ac 0000 0000 		.long	.LVL2
 2884 04b0 0600      		.word	0x6
 2885 04b2 68        		.byte	0x68
 2886 04b3 93        		.byte	0x93
 2887 04b4 01        		.uleb128 0x1
 2888 04b5 69        		.byte	0x69
 2889 04b6 93        		.byte	0x93
 2890 04b7 01        		.uleb128 0x1
 2891 04b8 0000 0000 		.long	.LVL2
 2892 04bc 0000 0000 		.long	.LFE17
 2893 04c0 0600      		.word	0x6
 2894 04c2 62        		.byte	0x62
 2895 04c3 93        		.byte	0x93
 2896 04c4 01        		.uleb128 0x1
 2897 04c5 63        		.byte	0x63
 2898 04c6 93        		.byte	0x93
 2899 04c7 01        		.uleb128 0x1
 2900 04c8 0000 0000 		.long	0
 2901 04cc 0000 0000 		.long	0
 2902               		.section	.debug_aranges,"",@progbits
 2903 0000 4C00 0000 		.long	0x4c
 2904 0004 0200      		.word	0x2
 2905 0006 0000 0000 		.long	.Ldebug_info0
 2906 000a 04        		.byte	0x4
 2907 000b 00        		.byte	0
 2908 000c 0000      		.word	0
 2909 000e 0000      		.word	0
 2910 0010 0000 0000 		.long	.LFB15
 2911 0014 1800 0000 		.long	.LFE15-.LFB15
 2912 0018 0000 0000 		.long	.LFB16
 2913 001c 0600 0000 		.long	.LFE16-.LFB16
 2914 0020 0000 0000 		.long	.LFB17
 2915 0024 1800 0000 		.long	.LFE17-.LFB17
 2916 0028 0000 0000 		.long	.LFB18
 2917 002c AA00 0000 		.long	.LFE18-.LFB18
 2918 0030 0000 0000 		.long	.LFB19
 2919 0034 0A01 0000 		.long	.LFE19-.LFB19
 2920 0038 0000 0000 		.long	.LFB20
 2921 003c C200 0000 		.long	.LFE20-.LFB20
 2922 0040 0000 0000 		.long	.LFB14
 2923 0044 1A00 0000 		.long	.LFE14-.LFB14
 2924 0048 0000 0000 		.long	0
 2925 004c 0000 0000 		.long	0
 2926               		.section	.debug_ranges,"",@progbits
 2927               	.Ldebug_ranges0:
 2928 0000 0000 0000 		.long	.LBB21
 2929 0004 0000 0000 		.long	.LBE21
 2930 0008 0000 0000 		.long	.LBB24
 2931 000c 0000 0000 		.long	.LBE24
 2932 0010 0000 0000 		.long	0
 2933 0014 0000 0000 		.long	0
 2934 0018 0000 0000 		.long	.LBB25
GAS LISTING /var/folders/sh/lj4855x88xqgpw006s7bny180000gn/T//ccZ3NiRc.s 			page 64


 2935 001c 0000 0000 		.long	.LBE25
 2936 0020 0000 0000 		.long	.LBB31
 2937 0024 0000 0000 		.long	.LBE31
 2938 0028 0000 0000 		.long	0
 2939 002c 0000 0000 		.long	0
 2940 0030 0000 0000 		.long	.LBB26
 2941 0034 0000 0000 		.long	.LBE26
 2942 0038 0000 0000 		.long	.LBB29
 2943 003c 0000 0000 		.long	.LBE29
 2944 0040 0000 0000 		.long	.LBB30
 2945 0044 0000 0000 		.long	.LBE30
 2946 0048 0000 0000 		.long	0
 2947 004c 0000 0000 		.long	0
 2948 0050 0000 0000 		.long	.LBB32
 2949 0054 0000 0000 		.long	.LBE32
 2950 0058 0000 0000 		.long	.LBB38
 2951 005c 0000 0000 		.long	.LBE38
 2952 0060 0000 0000 		.long	.LBB39
 2953 0064 0000 0000 		.long	.LBE39
 2954 0068 0000 0000 		.long	0
 2955 006c 0000 0000 		.long	0
 2956 0070 0000 0000 		.long	.LBB33
 2957 0074 0000 0000 		.long	.LBE33
 2958 0078 0000 0000 		.long	.LBB36
 2959 007c 0000 0000 		.long	.LBE36
 2960 0080 0000 0000 		.long	.LBB37
 2961 0084 0000 0000 		.long	.LBE37
 2962 0088 0000 0000 		.long	0
 2963 008c 0000 0000 		.long	0
 2964 0090 0000 0000 		.long	.LBB40
 2965 0094 0000 0000 		.long	.LBE40
 2966 0098 0000 0000 		.long	.LBB48
 2967 009c 0000 0000 		.long	.LBE48
 2968 00a0 0000 0000 		.long	0
 2969 00a4 0000 0000 		.long	0
 2970 00a8 0000 0000 		.long	.LBB41
 2971 00ac 0000 0000 		.long	.LBE41
 2972 00b0 0000 0000 		.long	.LBB46
 2973 00b4 0000 0000 		.long	.LBE46
 2974 00b8 0000 0000 		.long	.LBB47
 2975 00bc 0000 0000 		.long	.LBE47
 2976 00c0 0000 0000 		.long	0
 2977 00c4 0000 0000 		.long	0
 2978 00c8 0000 0000 		.long	.LBB42
 2979 00cc 0000 0000 		.long	.LBE42
 2980 00d0 0000 0000 		.long	.LBB45
 2981 00d4 0000 0000 		.long	.LBE45
 2982 00d8 0000 0000 		.long	0
 2983 00dc 0000 0000 		.long	0
 2984 00e0 0000 0000 		.long	.LFB15
 2985 00e4 0000 0000 		.long	.LFE15
 2986 00e8 0000 0000 		.long	.LFB16
 2987 00ec 0000 0000 		.long	.LFE16
 2988 00f0 0000 0000 		.long	.LFB17
 2989 00f4 0000 0000 		.long	.LFE17
 2990 00f8 0000 0000 		.long	.LFB18
 2991 00fc 0000 0000 		.long	.LFE18
GAS LISTING /var/folders/sh/lj4855x88xqgpw006s7bny180000gn/T//ccZ3NiRc.s 			page 65


 2992 0100 0000 0000 		.long	.LFB19
 2993 0104 0000 0000 		.long	.LFE19
 2994 0108 0000 0000 		.long	.LFB20
 2995 010c 0000 0000 		.long	.LFE20
 2996 0110 0000 0000 		.long	.LFB14
 2997 0114 0000 0000 		.long	.LFE14
 2998 0118 0000 0000 		.long	0
 2999 011c 0000 0000 		.long	0
 3000               		.section	.debug_line,"",@progbits
 3001               	.Ldebug_line0:
 3002 0000 BE08 0000 		.section	.debug_str,"MS",@progbits,1
 3002      0300 0F01 
 3002      0000 0201 
 3002      FB0E 0D00 
 3002      0101 0101 
 3003               	.LASF29:
 3004 0000 696E 7465 		.string	"intensity2"
 3004      6E73 6974 
 3004      7932 00
 3005               	.LASF26:
 3006 000b 6261 7365 		.string	"base2"
 3006      3200 
 3007               	.LASF12:
 3008 0011 7369 7A65 		.string	"size_t"
 3008      5F74 00
 3009               	.LASF42:
 3010 0018 7365 7475 		.string	"setup"
 3010      7000 
 3011               	.LASF23:
 3012 001e 6475 7261 		.string	"duration"
 3012      7469 6F6E 
 3012      00
 3013               	.LASF25:
 3014 0027 6261 7365 		.string	"base1"
 3014      3100 
 3015               	.LASF22:
 3016 002d 656E 6861 		.string	"enhanced_candle"
 3016      6E63 6564 
 3016      5F63 616E 
 3016      646C 6500 
 3017               	.LASF45:
 3018 003d 5F5F 6275 		.string	"__builtin_avr_delay_cycles"
 3018      696C 7469 
 3018      6E5F 6176 
 3018      725F 6465 
 3018      6C61 795F 
 3019               	.LASF0:
 3020 0058 696E 7438 		.string	"int8_t"
 3020      5F74 00
 3021               	.LASF44:
 3022 005f 5F64 656C 		.string	"_delay_ms"
 3022      6179 5F6D 
 3022      7300 
 3023               	.LASF16:
 3024 0069 5F5F 6D61 		.string	"__malloc_heap_end"
 3024      6C6C 6F63 
 3024      5F68 6561 
GAS LISTING /var/folders/sh/lj4855x88xqgpw006s7bny180000gn/T//ccZ3NiRc.s 			page 66


 3024      705F 656E 
 3024      6400 
 3025               	.LASF3:
 3026 007b 756E 7369 		.string	"unsigned char"
 3026      676E 6564 
 3026      2063 6861 
 3026      7200 
 3027               	.LASF46:
 3028 0089 6661 6273 		.string	"fabs"
 3028      00
 3029               	.LASF9:
 3030 008e 6C6F 6E67 		.string	"long unsigned int"
 3030      2075 6E73 
 3030      6967 6E65 
 3030      6420 696E 
 3030      7400 
 3031               	.LASF31:
 3032 00a0 6375 7374 		.string	"custom_delay_ms"
 3032      6F6D 5F64 
 3032      656C 6179 
 3032      5F6D 7300 
 3033               	.LASF17:
 3034 00b0 666C 6173 		.string	"flash_countdown"
 3034      685F 636F 
 3034      756E 7464 
 3034      6F77 6E00 
 3035               	.LASF39:
 3036 00c0 6861 6C6C 		.string	"halloween_candle.c"
 3036      6F77 6565 
 3036      6E5F 6361 
 3036      6E64 6C65 
 3036      2E63 00
 3037               	.LASF18:
 3038 00d3 6272 6967 		.string	"brightness1"
 3038      6874 6E65 
 3038      7373 3100 
 3039               	.LASF13:
 3040 00df 5F5F 6D61 		.string	"__malloc_margin"
 3040      6C6C 6F63 
 3040      5F6D 6172 
 3040      6769 6E00 
 3041               	.LASF37:
 3042 00ef 646F 7562 		.string	"double"
 3042      6C65 00
 3043               	.LASF20:
 3044 00f6 7661 7269 		.string	"variation"
 3044      6174 696F 
 3044      6E00 
 3045               	.LASF35:
 3046 0100 5F5F 746D 		.string	"__tmp"
 3046      7000 
 3047               	.LASF43:
 3048 0106 6D61 696E 		.string	"main"
 3048      00
 3049               	.LASF27:
 3050 010b 666C 6963 		.string	"flicker_strength"
 3050      6B65 725F 
GAS LISTING /var/folders/sh/lj4855x88xqgpw006s7bny180000gn/T//ccZ3NiRc.s 			page 67


 3050      7374 7265 
 3050      6E67 7468 
 3050      00
 3051               	.LASF32:
 3052 011c 6C65 6431 		.string	"led1"
 3052      00
 3053               	.LASF33:
 3054 0121 6C65 6432 		.string	"led2"
 3054      00
 3055               	.LASF6:
 3056 0126 756E 7369 		.string	"unsigned int"
 3056      676E 6564 
 3056      2069 6E74 
 3056      00
 3057               	.LASF21:
 3058 0133 6469 7374 		.string	"distant_storm"
 3058      616E 745F 
 3058      7374 6F72 
 3058      6D00 
 3059               	.LASF11:
 3060 0141 6C6F 6E67 		.string	"long long unsigned int"
 3060      206C 6F6E 
 3060      6720 756E 
 3060      7369 676E 
 3060      6564 2069 
 3061               	.LASF1:
 3062 0158 7569 6E74 		.string	"uint8_t"
 3062      385F 7400 
 3063               	.LASF4:
 3064 0160 696E 7431 		.string	"int16_t"
 3064      365F 7400 
 3065               	.LASF41:
 3066 0168 7365 745F 		.string	"set_led_brightness"
 3066      6C65 645F 
 3066      6272 6967 
 3066      6874 6E65 
 3066      7373 00
 3067               	.LASF38:
 3068 017b 474E 5520 		.string	"GNU C17 9.4.0 -mn-flash=1 -mno-skip-bug -mmcu=avr25 -g -Os -fpack-struct -fshort-enums -f
 3068      4331 3720 
 3068      392E 342E 
 3068      3020 2D6D 
 3068      6E2D 666C 
 3069               	.LASF10:
 3070 022a 6C6F 6E67 		.string	"long long int"
 3070      206C 6F6E 
 3070      6720 696E 
 3070      7400 
 3071               	.LASF15:
 3072 0238 6368 6172 		.string	"char"
 3072      00
 3073               	.LASF24:
 3074 023d 6261 7365 		.string	"base_intensity"
 3074      5F69 6E74 
 3074      656E 7369 
 3074      7479 00
 3075               	.LASF28:
GAS LISTING /var/folders/sh/lj4855x88xqgpw006s7bny180000gn/T//ccZ3NiRc.s 			page 68


 3076 024c 696E 7465 		.string	"intensity1"
 3076      6E73 6974 
 3076      7931 00
 3077               	.LASF5:
 3078 0257 7569 6E74 		.string	"uint16_t"
 3078      3136 5F74 
 3078      00
 3079               	.LASF30:
 3080 0260 6765 6E74 		.string	"gentle_flicker"
 3080      6C65 5F66 
 3080      6C69 636B 
 3080      6572 00
 3081               	.LASF8:
 3082 026f 7569 6E74 		.string	"uint32_t"
 3082      3332 5F74 
 3082      00
 3083               	.LASF7:
 3084 0278 6C6F 6E67 		.string	"long int"
 3084      2069 6E74 
 3084      00
 3085               	.LASF2:
 3086 0281 7369 676E 		.string	"signed char"
 3086      6564 2063 
 3086      6861 7200 
 3087               	.LASF19:
 3088 028d 6272 6967 		.string	"brightness2"
 3088      6874 6E65 
 3088      7373 3200 
 3089               	.LASF14:
 3090 0299 5F5F 6D61 		.string	"__malloc_heap_start"
 3090      6C6C 6F63 
 3090      5F68 6561 
 3090      705F 7374 
 3090      6172 7400 
 3091               	.LASF36:
 3092 02ad 5F5F 7469 		.string	"__ticks_dc"
 3092      636B 735F 
 3092      6463 00
 3093               	.LASF34:
 3094 02b8 5F5F 6D73 		.string	"__ms"
 3094      00
 3095               	.LASF47:
 3096 02bd 7261 6E64 		.string	"rand"
 3096      00
 3097               	.LASF40:
 3098 02c2 2F55 7365 		.string	"/Users/danielfishkin/gitprojects/CreativeMusicalCoding/class6/newSongs/halloween_candle"
 3098      7273 2F64 
 3098      616E 6965 
 3098      6C66 6973 
 3098      686B 696E 
 3099               		.ident	"GCC: (Homebrew AVR GCC 9.4.0_1) 9.4.0"
GAS LISTING /var/folders/sh/lj4855x88xqgpw006s7bny180000gn/T//ccZ3NiRc.s 			page 69


DEFINED SYMBOLS
                            *ABS*:00000000 halloween_candle.c
/var/folders/sh/lj4855x88xqgpw006s7bny180000gn/T//ccZ3NiRc.s:2      *ABS*:0000003e __SP_H__
/var/folders/sh/lj4855x88xqgpw006s7bny180000gn/T//ccZ3NiRc.s:3      *ABS*:0000003d __SP_L__
/var/folders/sh/lj4855x88xqgpw006s7bny180000gn/T//ccZ3NiRc.s:4      *ABS*:0000003f __SREG__
/var/folders/sh/lj4855x88xqgpw006s7bny180000gn/T//ccZ3NiRc.s:5      *ABS*:00000000 __tmp_reg__
/var/folders/sh/lj4855x88xqgpw006s7bny180000gn/T//ccZ3NiRc.s:6      *ABS*:00000001 __zero_reg__
/var/folders/sh/lj4855x88xqgpw006s7bny180000gn/T//ccZ3NiRc.s:13     .text.setup:00000000 setup
/var/folders/sh/lj4855x88xqgpw006s7bny180000gn/T//ccZ3NiRc.s:16     .text.setup:00000000 .Loc.0
/var/folders/sh/lj4855x88xqgpw006s7bny180000gn/T//ccZ3NiRc.s:17     .text.setup:00000000 L0
/var/folders/sh/lj4855x88xqgpw006s7bny180000gn/T//ccZ3NiRc.s:22     .text.setup:00000000 .Loc.1
/var/folders/sh/lj4855x88xqgpw006s7bny180000gn/T//ccZ3NiRc.s:23     .text.setup:00000000 .Loc.2
/var/folders/sh/lj4855x88xqgpw006s7bny180000gn/T//ccZ3NiRc.s:27     .text.setup:00000006 .Loc.3
/var/folders/sh/lj4855x88xqgpw006s7bny180000gn/T//ccZ3NiRc.s:28     .text.setup:00000006 .Loc.4
/var/folders/sh/lj4855x88xqgpw006s7bny180000gn/T//ccZ3NiRc.s:31     .text.setup:0000000a .Loc.5
/var/folders/sh/lj4855x88xqgpw006s7bny180000gn/T//ccZ3NiRc.s:32     .text.setup:0000000a .Loc.6
/var/folders/sh/lj4855x88xqgpw006s7bny180000gn/T//ccZ3NiRc.s:35     .text.setup:0000000e .Loc.7
/var/folders/sh/lj4855x88xqgpw006s7bny180000gn/T//ccZ3NiRc.s:36     .text.setup:0000000e .Loc.8
/var/folders/sh/lj4855x88xqgpw006s7bny180000gn/T//ccZ3NiRc.s:39     .text.setup:00000012 .Loc.9
/var/folders/sh/lj4855x88xqgpw006s7bny180000gn/T//ccZ3NiRc.s:40     .text.setup:00000012 .Loc.10
/var/folders/sh/lj4855x88xqgpw006s7bny180000gn/T//ccZ3NiRc.s:44     .text.setup:00000016 .Loc.11
/var/folders/sh/lj4855x88xqgpw006s7bny180000gn/T//ccZ3NiRc.s:46     .text.setup:00000018 L0
/var/folders/sh/lj4855x88xqgpw006s7bny180000gn/T//ccZ3NiRc.s:52     .text.set_led_brightness:00000000 set_led_brightness
/var/folders/sh/lj4855x88xqgpw006s7bny180000gn/T//ccZ3NiRc.s:55     .text.set_led_brightness:00000000 .Loc.12
/var/folders/sh/lj4855x88xqgpw006s7bny180000gn/T//ccZ3NiRc.s:56     .text.set_led_brightness:00000000 L0
/var/folders/sh/lj4855x88xqgpw006s7bny180000gn/T//ccZ3NiRc.s:61     .text.set_led_brightness:00000000 .Loc.13
/var/folders/sh/lj4855x88xqgpw006s7bny180000gn/T//ccZ3NiRc.s:62     .text.set_led_brightness:00000000 .Loc.14
/var/folders/sh/lj4855x88xqgpw006s7bny180000gn/T//ccZ3NiRc.s:64     .text.set_led_brightness:00000002 .Loc.15
/var/folders/sh/lj4855x88xqgpw006s7bny180000gn/T//ccZ3NiRc.s:65     .text.set_led_brightness:00000002 .Loc.16
/var/folders/sh/lj4855x88xqgpw006s7bny180000gn/T//ccZ3NiRc.s:68     .text.set_led_brightness:00000004 .Loc.17
/var/folders/sh/lj4855x88xqgpw006s7bny180000gn/T//ccZ3NiRc.s:70     .text.set_led_brightness:00000006 L0
/var/folders/sh/lj4855x88xqgpw006s7bny180000gn/T//ccZ3NiRc.s:76     .text.custom_delay_ms:00000000 custom_delay_ms
/var/folders/sh/lj4855x88xqgpw006s7bny180000gn/T//ccZ3NiRc.s:79     .text.custom_delay_ms:00000000 .Loc.18
/var/folders/sh/lj4855x88xqgpw006s7bny180000gn/T//ccZ3NiRc.s:80     .text.custom_delay_ms:00000000 L0
/var/folders/sh/lj4855x88xqgpw006s7bny180000gn/T//ccZ3NiRc.s:85     .text.custom_delay_ms:00000000 .Loc.19
/var/folders/sh/lj4855x88xqgpw006s7bny180000gn/T//ccZ3NiRc.s:87     .text.custom_delay_ms:00000002 .Loc.20
/var/folders/sh/lj4855x88xqgpw006s7bny180000gn/T//ccZ3NiRc.s:90     .text.custom_delay_ms:00000002 .Loc.21
/var/folders/sh/lj4855x88xqgpw006s7bny180000gn/T//ccZ3NiRc.s:91     .text.custom_delay_ms:00000002 .Loc.22
/var/folders/sh/lj4855x88xqgpw006s7bny180000gn/T//ccZ3NiRc.s:97     .text.custom_delay_ms:00000008 .Loc.23
/var/folders/sh/lj4855x88xqgpw006s7bny180000gn/T//ccZ3NiRc.s:100    .text.custom_delay_ms:0000000a .Loc.24
/var/folders/sh/lj4855x88xqgpw006s7bny180000gn/T//ccZ3NiRc.s:105    .text.custom_delay_ms:0000000a .Loc.25
/var/folders/sh/lj4855x88xqgpw006s7bny180000gn/T//ccZ3NiRc.s:107    .text.custom_delay_ms:0000000a .Loc.26
/var/folders/sh/lj4855x88xqgpw006s7bny180000gn/T//ccZ3NiRc.s:108    .text.custom_delay_ms:0000000a .Loc.27
/var/folders/sh/lj4855x88xqgpw006s7bny180000gn/T//ccZ3NiRc.s:109    .text.custom_delay_ms:0000000a .Loc.28
/var/folders/sh/lj4855x88xqgpw006s7bny180000gn/T//ccZ3NiRc.s:110    .text.custom_delay_ms:0000000a .Loc.29
/var/folders/sh/lj4855x88xqgpw006s7bny180000gn/T//ccZ3NiRc.s:111    .text.custom_delay_ms:0000000a .Loc.30
/var/folders/sh/lj4855x88xqgpw006s7bny180000gn/T//ccZ3NiRc.s:112    .text.custom_delay_ms:0000000a .Loc.31
/var/folders/sh/lj4855x88xqgpw006s7bny180000gn/T//ccZ3NiRc.s:116    .text.custom_delay_ms:0000000a .Loc.32
/var/folders/sh/lj4855x88xqgpw006s7bny180000gn/T//ccZ3NiRc.s:119    .text.custom_delay_ms:0000000a .Loc.33
/var/folders/sh/lj4855x88xqgpw006s7bny180000gn/T//ccZ3NiRc.s:124    .text.custom_delay_ms:00000014 L0
/var/folders/sh/lj4855x88xqgpw006s7bny180000gn/T//ccZ3NiRc.s:126    .text.custom_delay_ms:00000016 .Loc.34
/var/folders/sh/lj4855x88xqgpw006s7bny180000gn/T//ccZ3NiRc.s:130    .text.custom_delay_ms:00000018 L0
/var/folders/sh/lj4855x88xqgpw006s7bny180000gn/T//ccZ3NiRc.s:136    .text.gentle_flicker:00000000 gentle_flicker
/var/folders/sh/lj4855x88xqgpw006s7bny180000gn/T//ccZ3NiRc.s:139    .text.gentle_flicker:00000000 .Loc.35
/var/folders/sh/lj4855x88xqgpw006s7bny180000gn/T//ccZ3NiRc.s:140    .text.gentle_flicker:00000000 L0
/var/folders/sh/lj4855x88xqgpw006s7bny180000gn/T//ccZ3NiRc.s:141    .text.gentle_flicker:00000000 .Loc.36
/var/folders/sh/lj4855x88xqgpw006s7bny180000gn/T//ccZ3NiRc.s:189    .text.gentle_flicker:0000001e .Loc.37
GAS LISTING /var/folders/sh/lj4855x88xqgpw006s7bny180000gn/T//ccZ3NiRc.s 			page 70


/var/folders/sh/lj4855x88xqgpw006s7bny180000gn/T//ccZ3NiRc.s:191    .text.gentle_flicker:0000001e .Loc.38
/var/folders/sh/lj4855x88xqgpw006s7bny180000gn/T//ccZ3NiRc.s:193    .text.gentle_flicker:0000001e .Loc.39
/var/folders/sh/lj4855x88xqgpw006s7bny180000gn/T//ccZ3NiRc.s:194    .text.gentle_flicker:0000001e .Loc.40
/var/folders/sh/lj4855x88xqgpw006s7bny180000gn/T//ccZ3NiRc.s:198    .text.gentle_flicker:00000022 .Loc.41
/var/folders/sh/lj4855x88xqgpw006s7bny180000gn/T//ccZ3NiRc.s:202    .text.gentle_flicker:00000028 .Loc.42
/var/folders/sh/lj4855x88xqgpw006s7bny180000gn/T//ccZ3NiRc.s:205    .text.gentle_flicker:0000002c .Loc.43
/var/folders/sh/lj4855x88xqgpw006s7bny180000gn/T//ccZ3NiRc.s:209    .text.gentle_flicker:00000032 .Loc.44
/var/folders/sh/lj4855x88xqgpw006s7bny180000gn/T//ccZ3NiRc.s:213    .text.gentle_flicker:00000038 .Loc.45
/var/folders/sh/lj4855x88xqgpw006s7bny180000gn/T//ccZ3NiRc.s:219    .text.gentle_flicker:0000003e .Loc.46
/var/folders/sh/lj4855x88xqgpw006s7bny180000gn/T//ccZ3NiRc.s:221    .text.gentle_flicker:0000003e .Loc.47
/var/folders/sh/lj4855x88xqgpw006s7bny180000gn/T//ccZ3NiRc.s:222    .text.gentle_flicker:0000003e .Loc.48
/var/folders/sh/lj4855x88xqgpw006s7bny180000gn/T//ccZ3NiRc.s:228    .text.gentle_flicker:00000044 .Loc.49
/var/folders/sh/lj4855x88xqgpw006s7bny180000gn/T//ccZ3NiRc.s:232    .text.gentle_flicker:00000048 .Loc.50
/var/folders/sh/lj4855x88xqgpw006s7bny180000gn/T//ccZ3NiRc.s:246    .text.gentle_flicker:00000060 .Loc.51
/var/folders/sh/lj4855x88xqgpw006s7bny180000gn/T//ccZ3NiRc.s:252    .text.gentle_flicker:00000062 .Loc.52
/var/folders/sh/lj4855x88xqgpw006s7bny180000gn/T//ccZ3NiRc.s:253    .text.gentle_flicker:00000062 .Loc.53
/var/folders/sh/lj4855x88xqgpw006s7bny180000gn/T//ccZ3NiRc.s:254    .text.gentle_flicker:00000062 .Loc.54
/var/folders/sh/lj4855x88xqgpw006s7bny180000gn/T//ccZ3NiRc.s:257    .text.gentle_flicker:00000064 .Loc.55
/var/folders/sh/lj4855x88xqgpw006s7bny180000gn/T//ccZ3NiRc.s:260    .text.gentle_flicker:00000068 .Loc.56
/var/folders/sh/lj4855x88xqgpw006s7bny180000gn/T//ccZ3NiRc.s:263    .text.gentle_flicker:0000006c .Loc.57
/var/folders/sh/lj4855x88xqgpw006s7bny180000gn/T//ccZ3NiRc.s:264    .text.gentle_flicker:0000006c .Loc.58
/var/folders/sh/lj4855x88xqgpw006s7bny180000gn/T//ccZ3NiRc.s:267    .text.gentle_flicker:0000006e .Loc.59
/var/folders/sh/lj4855x88xqgpw006s7bny180000gn/T//ccZ3NiRc.s:270    .text.gentle_flicker:00000072 .Loc.60
/var/folders/sh/lj4855x88xqgpw006s7bny180000gn/T//ccZ3NiRc.s:276    .text.gentle_flicker:00000078 .Loc.61
/var/folders/sh/lj4855x88xqgpw006s7bny180000gn/T//ccZ3NiRc.s:277    .text.gentle_flicker:00000078 .Loc.62
/var/folders/sh/lj4855x88xqgpw006s7bny180000gn/T//ccZ3NiRc.s:278    .text.gentle_flicker:00000078 .Loc.63
/var/folders/sh/lj4855x88xqgpw006s7bny180000gn/T//ccZ3NiRc.s:279    .text.gentle_flicker:00000078 .Loc.64
/var/folders/sh/lj4855x88xqgpw006s7bny180000gn/T//ccZ3NiRc.s:280    .text.gentle_flicker:00000078 .Loc.65
/var/folders/sh/lj4855x88xqgpw006s7bny180000gn/T//ccZ3NiRc.s:281    .text.gentle_flicker:00000078 .Loc.66
/var/folders/sh/lj4855x88xqgpw006s7bny180000gn/T//ccZ3NiRc.s:285    .text.gentle_flicker:0000007e .Loc.67
/var/folders/sh/lj4855x88xqgpw006s7bny180000gn/T//ccZ3NiRc.s:288    .text.gentle_flicker:00000082 .Loc.68
/var/folders/sh/lj4855x88xqgpw006s7bny180000gn/T//ccZ3NiRc.s:291    .text.gentle_flicker:00000086 .Loc.69
/var/folders/sh/lj4855x88xqgpw006s7bny180000gn/T//ccZ3NiRc.s:297    .text.gentle_flicker:0000008a .Loc.70
/var/folders/sh/lj4855x88xqgpw006s7bny180000gn/T//ccZ3NiRc.s:299    .text.gentle_flicker:0000008a .Loc.71
/var/folders/sh/lj4855x88xqgpw006s7bny180000gn/T//ccZ3NiRc.s:300    .text.gentle_flicker:0000008a .Loc.72
/var/folders/sh/lj4855x88xqgpw006s7bny180000gn/T//ccZ3NiRc.s:302    .text.gentle_flicker:0000008c .Loc.73
/var/folders/sh/lj4855x88xqgpw006s7bny180000gn/T//ccZ3NiRc.s:303    .text.gentle_flicker:0000008c .Loc.74
/var/folders/sh/lj4855x88xqgpw006s7bny180000gn/T//ccZ3NiRc.s:306    .text.gentle_flicker:0000008e .Loc.75
/var/folders/sh/lj4855x88xqgpw006s7bny180000gn/T//ccZ3NiRc.s:309    .text.gentle_flicker:0000008e .Loc.76
/var/folders/sh/lj4855x88xqgpw006s7bny180000gn/T//ccZ3NiRc.s:310    .text.gentle_flicker:0000008e .Loc.77
/var/folders/sh/lj4855x88xqgpw006s7bny180000gn/T//ccZ3NiRc.s:313    .text.gentle_flicker:00000090 .Loc.78
/var/folders/sh/lj4855x88xqgpw006s7bny180000gn/T//ccZ3NiRc.s:316    .text.gentle_flicker:00000094 .Loc.79
/var/folders/sh/lj4855x88xqgpw006s7bny180000gn/T//ccZ3NiRc.s:321    .text.gentle_flicker:00000098 .Loc.80
/var/folders/sh/lj4855x88xqgpw006s7bny180000gn/T//ccZ3NiRc.s:322    .text.gentle_flicker:00000098 .Loc.81
/var/folders/sh/lj4855x88xqgpw006s7bny180000gn/T//ccZ3NiRc.s:325    .text.gentle_flicker:0000009a .Loc.82
/var/folders/sh/lj4855x88xqgpw006s7bny180000gn/T//ccZ3NiRc.s:329    .text.gentle_flicker:0000009c .Loc.83
/var/folders/sh/lj4855x88xqgpw006s7bny180000gn/T//ccZ3NiRc.s:330    .text.gentle_flicker:0000009c .Loc.84
/var/folders/sh/lj4855x88xqgpw006s7bny180000gn/T//ccZ3NiRc.s:333    .text.gentle_flicker:0000009e .Loc.85
/var/folders/sh/lj4855x88xqgpw006s7bny180000gn/T//ccZ3NiRc.s:336    .text.gentle_flicker:000000a2 .Loc.86
/var/folders/sh/lj4855x88xqgpw006s7bny180000gn/T//ccZ3NiRc.s:341    .text.gentle_flicker:000000a8 .Loc.87
/var/folders/sh/lj4855x88xqgpw006s7bny180000gn/T//ccZ3NiRc.s:345    .text.gentle_flicker:000000aa L0
/var/folders/sh/lj4855x88xqgpw006s7bny180000gn/T//ccZ3NiRc.s:351    .text.enhanced_candle:00000000 enhanced_candle
/var/folders/sh/lj4855x88xqgpw006s7bny180000gn/T//ccZ3NiRc.s:354    .text.enhanced_candle:00000000 .Loc.88
/var/folders/sh/lj4855x88xqgpw006s7bny180000gn/T//ccZ3NiRc.s:355    .text.enhanced_candle:00000000 L0
/var/folders/sh/lj4855x88xqgpw006s7bny180000gn/T//ccZ3NiRc.s:356    .text.enhanced_candle:00000000 .Loc.89
/var/folders/sh/lj4855x88xqgpw006s7bny180000gn/T//ccZ3NiRc.s:413    .text.enhanced_candle:00000024 .Loc.90
/var/folders/sh/lj4855x88xqgpw006s7bny180000gn/T//ccZ3NiRc.s:415    .text.enhanced_candle:00000024 .Loc.91
GAS LISTING /var/folders/sh/lj4855x88xqgpw006s7bny180000gn/T//ccZ3NiRc.s 			page 71


/var/folders/sh/lj4855x88xqgpw006s7bny180000gn/T//ccZ3NiRc.s:416    .text.enhanced_candle:00000024 .Loc.92
/var/folders/sh/lj4855x88xqgpw006s7bny180000gn/T//ccZ3NiRc.s:418    .text.enhanced_candle:00000024 .Loc.93
/var/folders/sh/lj4855x88xqgpw006s7bny180000gn/T//ccZ3NiRc.s:419    .text.enhanced_candle:00000024 .Loc.94
/var/folders/sh/lj4855x88xqgpw006s7bny180000gn/T//ccZ3NiRc.s:423    .text.enhanced_candle:00000028 .Loc.95
/var/folders/sh/lj4855x88xqgpw006s7bny180000gn/T//ccZ3NiRc.s:426    .text.enhanced_candle:0000002a .Loc.96
/var/folders/sh/lj4855x88xqgpw006s7bny180000gn/T//ccZ3NiRc.s:431    .text.enhanced_candle:00000030 .Loc.97
/var/folders/sh/lj4855x88xqgpw006s7bny180000gn/T//ccZ3NiRc.s:434    .text.enhanced_candle:00000034 .Loc.98
/var/folders/sh/lj4855x88xqgpw006s7bny180000gn/T//ccZ3NiRc.s:438    .text.enhanced_candle:0000003a .Loc.99
/var/folders/sh/lj4855x88xqgpw006s7bny180000gn/T//ccZ3NiRc.s:442    .text.enhanced_candle:00000040 .Loc.100
/var/folders/sh/lj4855x88xqgpw006s7bny180000gn/T//ccZ3NiRc.s:448    .text.enhanced_candle:00000046 .Loc.101
/var/folders/sh/lj4855x88xqgpw006s7bny180000gn/T//ccZ3NiRc.s:450    .text.enhanced_candle:00000046 .Loc.102
/var/folders/sh/lj4855x88xqgpw006s7bny180000gn/T//ccZ3NiRc.s:451    .text.enhanced_candle:00000046 .Loc.103
/var/folders/sh/lj4855x88xqgpw006s7bny180000gn/T//ccZ3NiRc.s:457    .text.enhanced_candle:0000004c .Loc.104
/var/folders/sh/lj4855x88xqgpw006s7bny180000gn/T//ccZ3NiRc.s:461    .text.enhanced_candle:00000050 .Loc.105
/var/folders/sh/lj4855x88xqgpw006s7bny180000gn/T//ccZ3NiRc.s:475    .text.enhanced_candle:00000068 .Loc.106
/var/folders/sh/lj4855x88xqgpw006s7bny180000gn/T//ccZ3NiRc.s:480    .text.enhanced_candle:0000006e .Loc.107
/var/folders/sh/lj4855x88xqgpw006s7bny180000gn/T//ccZ3NiRc.s:486    .text.enhanced_candle:00000070 .Loc.108
/var/folders/sh/lj4855x88xqgpw006s7bny180000gn/T//ccZ3NiRc.s:488    .text.enhanced_candle:00000070 .Loc.109
/var/folders/sh/lj4855x88xqgpw006s7bny180000gn/T//ccZ3NiRc.s:493    .text.enhanced_candle:00000076 .Loc.110
/var/folders/sh/lj4855x88xqgpw006s7bny180000gn/T//ccZ3NiRc.s:496    .text.enhanced_candle:0000007a .Loc.111
/var/folders/sh/lj4855x88xqgpw006s7bny180000gn/T//ccZ3NiRc.s:497    .text.enhanced_candle:0000007a .Loc.112
/var/folders/sh/lj4855x88xqgpw006s7bny180000gn/T//ccZ3NiRc.s:500    .text.enhanced_candle:0000007c .Loc.113
/var/folders/sh/lj4855x88xqgpw006s7bny180000gn/T//ccZ3NiRc.s:503    .text.enhanced_candle:00000080 .Loc.114
/var/folders/sh/lj4855x88xqgpw006s7bny180000gn/T//ccZ3NiRc.s:507    .text.enhanced_candle:00000084 .Loc.115
/var/folders/sh/lj4855x88xqgpw006s7bny180000gn/T//ccZ3NiRc.s:511    .text.enhanced_candle:00000086 .Loc.116
/var/folders/sh/lj4855x88xqgpw006s7bny180000gn/T//ccZ3NiRc.s:512    .text.enhanced_candle:00000086 .Loc.117
/var/folders/sh/lj4855x88xqgpw006s7bny180000gn/T//ccZ3NiRc.s:515    .text.enhanced_candle:00000088 .Loc.118
/var/folders/sh/lj4855x88xqgpw006s7bny180000gn/T//ccZ3NiRc.s:521    .text.enhanced_candle:00000092 .Loc.119
/var/folders/sh/lj4855x88xqgpw006s7bny180000gn/T//ccZ3NiRc.s:524    .text.enhanced_candle:00000096 .Loc.120
/var/folders/sh/lj4855x88xqgpw006s7bny180000gn/T//ccZ3NiRc.s:526    .text.enhanced_candle:00000098 .Loc.121
/var/folders/sh/lj4855x88xqgpw006s7bny180000gn/T//ccZ3NiRc.s:531    .text.enhanced_candle:0000009e .Loc.122
/var/folders/sh/lj4855x88xqgpw006s7bny180000gn/T//ccZ3NiRc.s:532    .text.enhanced_candle:0000009e .Loc.123
/var/folders/sh/lj4855x88xqgpw006s7bny180000gn/T//ccZ3NiRc.s:535    .text.enhanced_candle:000000a0 .Loc.124
/var/folders/sh/lj4855x88xqgpw006s7bny180000gn/T//ccZ3NiRc.s:538    .text.enhanced_candle:000000a4 .Loc.125
/var/folders/sh/lj4855x88xqgpw006s7bny180000gn/T//ccZ3NiRc.s:541    .text.enhanced_candle:000000a8 .Loc.126
/var/folders/sh/lj4855x88xqgpw006s7bny180000gn/T//ccZ3NiRc.s:542    .text.enhanced_candle:000000a8 .Loc.127
/var/folders/sh/lj4855x88xqgpw006s7bny180000gn/T//ccZ3NiRc.s:545    .text.enhanced_candle:000000aa .Loc.128
/var/folders/sh/lj4855x88xqgpw006s7bny180000gn/T//ccZ3NiRc.s:548    .text.enhanced_candle:000000ae .Loc.129
/var/folders/sh/lj4855x88xqgpw006s7bny180000gn/T//ccZ3NiRc.s:550    .text.enhanced_candle:000000b0 .Loc.130
/var/folders/sh/lj4855x88xqgpw006s7bny180000gn/T//ccZ3NiRc.s:555    .text.enhanced_candle:000000b4 .Loc.131
/var/folders/sh/lj4855x88xqgpw006s7bny180000gn/T//ccZ3NiRc.s:556    .text.enhanced_candle:000000b4 .Loc.132
/var/folders/sh/lj4855x88xqgpw006s7bny180000gn/T//ccZ3NiRc.s:557    .text.enhanced_candle:000000b4 .Loc.133
/var/folders/sh/lj4855x88xqgpw006s7bny180000gn/T//ccZ3NiRc.s:558    .text.enhanced_candle:000000b4 .Loc.134
/var/folders/sh/lj4855x88xqgpw006s7bny180000gn/T//ccZ3NiRc.s:559    .text.enhanced_candle:000000b4 .Loc.135
/var/folders/sh/lj4855x88xqgpw006s7bny180000gn/T//ccZ3NiRc.s:560    .text.enhanced_candle:000000b4 .Loc.136
/var/folders/sh/lj4855x88xqgpw006s7bny180000gn/T//ccZ3NiRc.s:566    .text.enhanced_candle:000000bc .Loc.137
/var/folders/sh/lj4855x88xqgpw006s7bny180000gn/T//ccZ3NiRc.s:568    .text.enhanced_candle:000000be .Loc.138
/var/folders/sh/lj4855x88xqgpw006s7bny180000gn/T//ccZ3NiRc.s:571    .text.enhanced_candle:000000c2 .Loc.139
/var/folders/sh/lj4855x88xqgpw006s7bny180000gn/T//ccZ3NiRc.s:580    .text.enhanced_candle:000000ce .Loc.140
/var/folders/sh/lj4855x88xqgpw006s7bny180000gn/T//ccZ3NiRc.s:583    .text.enhanced_candle:000000d2 .Loc.141
/var/folders/sh/lj4855x88xqgpw006s7bny180000gn/T//ccZ3NiRc.s:591    .text.enhanced_candle:000000de .Loc.142
/var/folders/sh/lj4855x88xqgpw006s7bny180000gn/T//ccZ3NiRc.s:595    .text.enhanced_candle:000000e2 .Loc.143
/var/folders/sh/lj4855x88xqgpw006s7bny180000gn/T//ccZ3NiRc.s:599    .text.enhanced_candle:000000e8 .Loc.144
/var/folders/sh/lj4855x88xqgpw006s7bny180000gn/T//ccZ3NiRc.s:607    .text.enhanced_candle:000000f4 .Loc.145
/var/folders/sh/lj4855x88xqgpw006s7bny180000gn/T//ccZ3NiRc.s:614    .text.enhanced_candle:000000f8 .Loc.146
/var/folders/sh/lj4855x88xqgpw006s7bny180000gn/T//ccZ3NiRc.s:616    .text.enhanced_candle:000000f8 .Loc.147
/var/folders/sh/lj4855x88xqgpw006s7bny180000gn/T//ccZ3NiRc.s:617    .text.enhanced_candle:000000f8 .Loc.148
GAS LISTING /var/folders/sh/lj4855x88xqgpw006s7bny180000gn/T//ccZ3NiRc.s 			page 72


/var/folders/sh/lj4855x88xqgpw006s7bny180000gn/T//ccZ3NiRc.s:619    .text.enhanced_candle:000000fa .Loc.149
/var/folders/sh/lj4855x88xqgpw006s7bny180000gn/T//ccZ3NiRc.s:620    .text.enhanced_candle:000000fa .Loc.150
/var/folders/sh/lj4855x88xqgpw006s7bny180000gn/T//ccZ3NiRc.s:623    .text.enhanced_candle:000000fc .Loc.151
/var/folders/sh/lj4855x88xqgpw006s7bny180000gn/T//ccZ3NiRc.s:626    .text.enhanced_candle:000000fc .Loc.152
/var/folders/sh/lj4855x88xqgpw006s7bny180000gn/T//ccZ3NiRc.s:627    .text.enhanced_candle:000000fc .Loc.153
/var/folders/sh/lj4855x88xqgpw006s7bny180000gn/T//ccZ3NiRc.s:630    .text.enhanced_candle:000000fe .Loc.154
/var/folders/sh/lj4855x88xqgpw006s7bny180000gn/T//ccZ3NiRc.s:633    .text.enhanced_candle:00000102 .Loc.155
/var/folders/sh/lj4855x88xqgpw006s7bny180000gn/T//ccZ3NiRc.s:638    .text.enhanced_candle:00000106 .Loc.156
/var/folders/sh/lj4855x88xqgpw006s7bny180000gn/T//ccZ3NiRc.s:639    .text.enhanced_candle:00000106 .Loc.157
/var/folders/sh/lj4855x88xqgpw006s7bny180000gn/T//ccZ3NiRc.s:642    .text.enhanced_candle:00000108 .Loc.158
/var/folders/sh/lj4855x88xqgpw006s7bny180000gn/T//ccZ3NiRc.s:645    .text.enhanced_candle:0000010a L0
/var/folders/sh/lj4855x88xqgpw006s7bny180000gn/T//ccZ3NiRc.s:651    .text.distant_storm:00000000 distant_storm
/var/folders/sh/lj4855x88xqgpw006s7bny180000gn/T//ccZ3NiRc.s:654    .text.distant_storm:00000000 .Loc.159
/var/folders/sh/lj4855x88xqgpw006s7bny180000gn/T//ccZ3NiRc.s:655    .text.distant_storm:00000000 L0
/var/folders/sh/lj4855x88xqgpw006s7bny180000gn/T//ccZ3NiRc.s:656    .text.distant_storm:00000000 .Loc.160
/var/folders/sh/lj4855x88xqgpw006s7bny180000gn/T//ccZ3NiRc.s:707    .text.distant_storm:00000020 .Loc.161
/var/folders/sh/lj4855x88xqgpw006s7bny180000gn/T//ccZ3NiRc.s:709    .text.distant_storm:00000020 .Loc.162
/var/folders/sh/lj4855x88xqgpw006s7bny180000gn/T//ccZ3NiRc.s:710    .text.distant_storm:00000020 .Loc.163
/var/folders/sh/lj4855x88xqgpw006s7bny180000gn/T//ccZ3NiRc.s:713    .text.distant_storm:00000022 .Loc.164
/var/folders/sh/lj4855x88xqgpw006s7bny180000gn/T//ccZ3NiRc.s:717    .text.distant_storm:00000028 .Loc.165
/var/folders/sh/lj4855x88xqgpw006s7bny180000gn/T//ccZ3NiRc.s:720    .text.distant_storm:0000002a .Loc.166
/var/folders/sh/lj4855x88xqgpw006s7bny180000gn/T//ccZ3NiRc.s:722    .text.distant_storm:0000002a .Loc.167
/var/folders/sh/lj4855x88xqgpw006s7bny180000gn/T//ccZ3NiRc.s:723    .text.distant_storm:0000002a .Loc.168
/var/folders/sh/lj4855x88xqgpw006s7bny180000gn/T//ccZ3NiRc.s:728    .text.distant_storm:0000002e .Loc.169
/var/folders/sh/lj4855x88xqgpw006s7bny180000gn/T//ccZ3NiRc.s:732    .text.distant_storm:00000032 .Loc.170
/var/folders/sh/lj4855x88xqgpw006s7bny180000gn/T//ccZ3NiRc.s:736    .text.distant_storm:00000038 .Loc.171
/var/folders/sh/lj4855x88xqgpw006s7bny180000gn/T//ccZ3NiRc.s:740    .text.distant_storm:0000003e .Loc.172
/var/folders/sh/lj4855x88xqgpw006s7bny180000gn/T//ccZ3NiRc.s:746    .text.distant_storm:00000044 .Loc.173
/var/folders/sh/lj4855x88xqgpw006s7bny180000gn/T//ccZ3NiRc.s:748    .text.distant_storm:00000044 .Loc.174
/var/folders/sh/lj4855x88xqgpw006s7bny180000gn/T//ccZ3NiRc.s:749    .text.distant_storm:00000044 .Loc.175
/var/folders/sh/lj4855x88xqgpw006s7bny180000gn/T//ccZ3NiRc.s:755    .text.distant_storm:0000004a .Loc.176
/var/folders/sh/lj4855x88xqgpw006s7bny180000gn/T//ccZ3NiRc.s:759    .text.distant_storm:0000004e .Loc.177
/var/folders/sh/lj4855x88xqgpw006s7bny180000gn/T//ccZ3NiRc.s:771    .text.distant_storm:00000062 .Loc.178
/var/folders/sh/lj4855x88xqgpw006s7bny180000gn/T//ccZ3NiRc.s:774    .text.distant_storm:00000064 .Loc.179
/var/folders/sh/lj4855x88xqgpw006s7bny180000gn/T//ccZ3NiRc.s:782    .text.distant_storm:0000006a .Loc.180
/var/folders/sh/lj4855x88xqgpw006s7bny180000gn/T//ccZ3NiRc.s:783    .text.distant_storm:0000006a .Loc.181
/var/folders/sh/lj4855x88xqgpw006s7bny180000gn/T//ccZ3NiRc.s:784    .text.distant_storm:0000006a .Loc.182
/var/folders/sh/lj4855x88xqgpw006s7bny180000gn/T//ccZ3NiRc.s:787    .text.distant_storm:0000006e .Loc.183
/var/folders/sh/lj4855x88xqgpw006s7bny180000gn/T//ccZ3NiRc.s:788    .text.distant_storm:0000006e .Loc.184
/var/folders/sh/lj4855x88xqgpw006s7bny180000gn/T//ccZ3NiRc.s:791    .text.distant_storm:00000070 .Loc.185
/var/folders/sh/lj4855x88xqgpw006s7bny180000gn/T//ccZ3NiRc.s:794    .text.distant_storm:00000074 .Loc.186
/var/folders/sh/lj4855x88xqgpw006s7bny180000gn/T//ccZ3NiRc.s:799    .text.distant_storm:0000007a .Loc.187
/var/folders/sh/lj4855x88xqgpw006s7bny180000gn/T//ccZ3NiRc.s:800    .text.distant_storm:0000007a .Loc.188
/var/folders/sh/lj4855x88xqgpw006s7bny180000gn/T//ccZ3NiRc.s:803    .text.distant_storm:0000007c .Loc.189
/var/folders/sh/lj4855x88xqgpw006s7bny180000gn/T//ccZ3NiRc.s:806    .text.distant_storm:00000080 .Loc.190
/var/folders/sh/lj4855x88xqgpw006s7bny180000gn/T//ccZ3NiRc.s:810    .text.distant_storm:00000084 .Loc.191
/var/folders/sh/lj4855x88xqgpw006s7bny180000gn/T//ccZ3NiRc.s:811    .text.distant_storm:00000084 .Loc.192
/var/folders/sh/lj4855x88xqgpw006s7bny180000gn/T//ccZ3NiRc.s:814    .text.distant_storm:00000086 .Loc.193
/var/folders/sh/lj4855x88xqgpw006s7bny180000gn/T//ccZ3NiRc.s:817    .text.distant_storm:0000008a .Loc.194
/var/folders/sh/lj4855x88xqgpw006s7bny180000gn/T//ccZ3NiRc.s:821    .text.distant_storm:0000008e .Loc.195
/var/folders/sh/lj4855x88xqgpw006s7bny180000gn/T//ccZ3NiRc.s:825    .text.distant_storm:00000090 .Loc.196
/var/folders/sh/lj4855x88xqgpw006s7bny180000gn/T//ccZ3NiRc.s:828    .text.distant_storm:00000090 .Loc.197
/var/folders/sh/lj4855x88xqgpw006s7bny180000gn/T//ccZ3NiRc.s:830    .text.distant_storm:00000090 .Loc.198
/var/folders/sh/lj4855x88xqgpw006s7bny180000gn/T//ccZ3NiRc.s:831    .text.distant_storm:00000090 .Loc.199
/var/folders/sh/lj4855x88xqgpw006s7bny180000gn/T//ccZ3NiRc.s:833    .text.distant_storm:00000092 .Loc.200
/var/folders/sh/lj4855x88xqgpw006s7bny180000gn/T//ccZ3NiRc.s:834    .text.distant_storm:00000092 .Loc.201
/var/folders/sh/lj4855x88xqgpw006s7bny180000gn/T//ccZ3NiRc.s:837    .text.distant_storm:00000094 .Loc.202
GAS LISTING /var/folders/sh/lj4855x88xqgpw006s7bny180000gn/T//ccZ3NiRc.s 			page 73


/var/folders/sh/lj4855x88xqgpw006s7bny180000gn/T//ccZ3NiRc.s:840    .text.distant_storm:00000094 .Loc.203
/var/folders/sh/lj4855x88xqgpw006s7bny180000gn/T//ccZ3NiRc.s:846    .text.distant_storm:0000009a .Loc.204
/var/folders/sh/lj4855x88xqgpw006s7bny180000gn/T//ccZ3NiRc.s:847    .text.distant_storm:0000009a .Loc.205
/var/folders/sh/lj4855x88xqgpw006s7bny180000gn/T//ccZ3NiRc.s:850    .text.distant_storm:0000009c .Loc.206
/var/folders/sh/lj4855x88xqgpw006s7bny180000gn/T//ccZ3NiRc.s:856    .text.distant_storm:0000009e .Loc.207
/var/folders/sh/lj4855x88xqgpw006s7bny180000gn/T//ccZ3NiRc.s:857    .text.distant_storm:0000009e .Loc.208
/var/folders/sh/lj4855x88xqgpw006s7bny180000gn/T//ccZ3NiRc.s:860    .text.distant_storm:000000a0 .Loc.209
/var/folders/sh/lj4855x88xqgpw006s7bny180000gn/T//ccZ3NiRc.s:864    .text.distant_storm:000000a4 .Loc.210
/var/folders/sh/lj4855x88xqgpw006s7bny180000gn/T//ccZ3NiRc.s:865    .text.distant_storm:000000a4 .Loc.211
/var/folders/sh/lj4855x88xqgpw006s7bny180000gn/T//ccZ3NiRc.s:870    .text.distant_storm:000000aa .Loc.212
/var/folders/sh/lj4855x88xqgpw006s7bny180000gn/T//ccZ3NiRc.s:871    .text.distant_storm:000000aa .Loc.213
/var/folders/sh/lj4855x88xqgpw006s7bny180000gn/T//ccZ3NiRc.s:875    .text.distant_storm:000000ae .Loc.214
/var/folders/sh/lj4855x88xqgpw006s7bny180000gn/T//ccZ3NiRc.s:880    .text.distant_storm:000000b4 .Loc.215
/var/folders/sh/lj4855x88xqgpw006s7bny180000gn/T//ccZ3NiRc.s:884    .text.distant_storm:000000b8 .Loc.216
/var/folders/sh/lj4855x88xqgpw006s7bny180000gn/T//ccZ3NiRc.s:888    .text.distant_storm:000000bc .Loc.217
/var/folders/sh/lj4855x88xqgpw006s7bny180000gn/T//ccZ3NiRc.s:891    .text.distant_storm:000000be .Loc.218
/var/folders/sh/lj4855x88xqgpw006s7bny180000gn/T//ccZ3NiRc.s:892    .text.distant_storm:000000be .Loc.219
/var/folders/sh/lj4855x88xqgpw006s7bny180000gn/T//ccZ3NiRc.s:895    .text.distant_storm:000000c0 .Loc.220
/var/folders/sh/lj4855x88xqgpw006s7bny180000gn/T//ccZ3NiRc.s:900    .text.distant_storm:000000c2 L0
/var/folders/sh/lj4855x88xqgpw006s7bny180000gn/T//ccZ3NiRc.s:906    .text.startup.main:00000000 main
/var/folders/sh/lj4855x88xqgpw006s7bny180000gn/T//ccZ3NiRc.s:908    .text.startup.main:00000000 .Loc.221
/var/folders/sh/lj4855x88xqgpw006s7bny180000gn/T//ccZ3NiRc.s:909    .text.startup.main:00000000 L0
/var/folders/sh/lj4855x88xqgpw006s7bny180000gn/T//ccZ3NiRc.s:914    .text.startup.main:00000000 .Loc.222
/var/folders/sh/lj4855x88xqgpw006s7bny180000gn/T//ccZ3NiRc.s:917    .text.startup.main:00000002 .Loc.223
/var/folders/sh/lj4855x88xqgpw006s7bny180000gn/T//ccZ3NiRc.s:923    .text.startup.main:00000008 .Loc.224
/var/folders/sh/lj4855x88xqgpw006s7bny180000gn/T//ccZ3NiRc.s:924    .text.startup.main:00000008 .Loc.225
/var/folders/sh/lj4855x88xqgpw006s7bny180000gn/T//ccZ3NiRc.s:929    .text.startup.main:0000000e .Loc.226
/var/folders/sh/lj4855x88xqgpw006s7bny180000gn/T//ccZ3NiRc.s:934    .text.startup.main:00000014 .Loc.227
/var/folders/sh/lj4855x88xqgpw006s7bny180000gn/T//ccZ3NiRc.s:938    .text.startup.main:0000001a L0
/var/folders/sh/lj4855x88xqgpw006s7bny180000gn/T//ccZ3NiRc.s:49     .text.setup:00000018 L0
/var/folders/sh/lj4855x88xqgpw006s7bny180000gn/T//ccZ3NiRc.s:73     .text.set_led_brightness:00000006 L0
/var/folders/sh/lj4855x88xqgpw006s7bny180000gn/T//ccZ3NiRc.s:133    .text.custom_delay_ms:00000018 L0
/var/folders/sh/lj4855x88xqgpw006s7bny180000gn/T//ccZ3NiRc.s:348    .text.gentle_flicker:000000aa L0
/var/folders/sh/lj4855x88xqgpw006s7bny180000gn/T//ccZ3NiRc.s:648    .text.enhanced_candle:0000010a L0
/var/folders/sh/lj4855x88xqgpw006s7bny180000gn/T//ccZ3NiRc.s:903    .text.distant_storm:000000c2 L0
/var/folders/sh/lj4855x88xqgpw006s7bny180000gn/T//ccZ3NiRc.s:941    .text.startup.main:0000001a L0
                     .debug_frame:00000000 L0
/var/folders/sh/lj4855x88xqgpw006s7bny180000gn/T//ccZ3NiRc.s:99     .text.custom_delay_ms:0000000a .L5
/var/folders/sh/lj4855x88xqgpw006s7bny180000gn/T//ccZ3NiRc.s:122    .text.custom_delay_ms:0000000e .L11
/var/folders/sh/lj4855x88xqgpw006s7bny180000gn/T//ccZ3NiRc.s:89     .text.custom_delay_ms:00000002 .L4
/var/folders/sh/lj4855x88xqgpw006s7bny180000gn/T//ccZ3NiRc.s:249    .text.gentle_flicker:00000062 .L10
/var/folders/sh/lj4855x88xqgpw006s7bny180000gn/T//ccZ3NiRc.s:327    .text.gentle_flicker:0000009c .L8
/var/folders/sh/lj4855x88xqgpw006s7bny180000gn/T//ccZ3NiRc.s:218    .text.gentle_flicker:0000003e .L7
/var/folders/sh/lj4855x88xqgpw006s7bny180000gn/T//ccZ3NiRc.s:275    .text.gentle_flicker:00000078 .L9
/var/folders/sh/lj4855x88xqgpw006s7bny180000gn/T//ccZ3NiRc.s:483    .text.enhanced_candle:00000070 .L20
/var/folders/sh/lj4855x88xqgpw006s7bny180000gn/T//ccZ3NiRc.s:510    .text.enhanced_candle:00000086 .L13
/var/folders/sh/lj4855x88xqgpw006s7bny180000gn/T//ccZ3NiRc.s:554    .text.enhanced_candle:000000b4 .L14
/var/folders/sh/lj4855x88xqgpw006s7bny180000gn/T//ccZ3NiRc.s:574    .text.enhanced_candle:000000c6 .L15
/var/folders/sh/lj4855x88xqgpw006s7bny180000gn/T//ccZ3NiRc.s:590    .text.enhanced_candle:000000de .L16
/var/folders/sh/lj4855x88xqgpw006s7bny180000gn/T//ccZ3NiRc.s:606    .text.enhanced_candle:000000f4 .L18
/var/folders/sh/lj4855x88xqgpw006s7bny180000gn/T//ccZ3NiRc.s:447    .text.enhanced_candle:00000046 .L12
/var/folders/sh/lj4855x88xqgpw006s7bny180000gn/T//ccZ3NiRc.s:779    .text.distant_storm:0000006a .L26
/var/folders/sh/lj4855x88xqgpw006s7bny180000gn/T//ccZ3NiRc.s:853    .text.distant_storm:0000009e .L23
/var/folders/sh/lj4855x88xqgpw006s7bny180000gn/T//ccZ3NiRc.s:745    .text.distant_storm:00000044 .L22
/var/folders/sh/lj4855x88xqgpw006s7bny180000gn/T//ccZ3NiRc.s:882    .text.distant_storm:000000b6 .L25
/var/folders/sh/lj4855x88xqgpw006s7bny180000gn/T//ccZ3NiRc.s:824    .text.distant_storm:00000090 .L24
/var/folders/sh/lj4855x88xqgpw006s7bny180000gn/T//ccZ3NiRc.s:920    .text.startup.main:00000006 .L29
GAS LISTING /var/folders/sh/lj4855x88xqgpw006s7bny180000gn/T//ccZ3NiRc.s 			page 74


/var/folders/sh/lj4855x88xqgpw006s7bny180000gn/T//ccZ3NiRc.s:1590   .debug_abbrev:00000000 .Ldebug_abbrev0
/var/folders/sh/lj4855x88xqgpw006s7bny180000gn/T//ccZ3NiRc.s:2927   .debug_ranges:00000000 .Ldebug_ranges0
/var/folders/sh/lj4855x88xqgpw006s7bny180000gn/T//ccZ3NiRc.s:3001   .debug_line:00000000 .Ldebug_line0
/var/folders/sh/lj4855x88xqgpw006s7bny180000gn/T//ccZ3NiRc.s:653    .text.distant_storm:00000000 .LFB20
/var/folders/sh/lj4855x88xqgpw006s7bny180000gn/T//ccZ3NiRc.s:901    .text.distant_storm:000000c2 .LFE20
/var/folders/sh/lj4855x88xqgpw006s7bny180000gn/T//ccZ3NiRc.s:2189   .debug_loc:00000008 .LLST16
/var/folders/sh/lj4855x88xqgpw006s7bny180000gn/T//ccZ3NiRc.s:2180   .debug_loc:00000000 .LVUS16
/var/folders/sh/lj4855x88xqgpw006s7bny180000gn/T//ccZ3NiRc.s:2233   .debug_loc:00000054 .LLST17
/var/folders/sh/lj4855x88xqgpw006s7bny180000gn/T//ccZ3NiRc.s:2226   .debug_loc:0000004e .LVUS17
/var/folders/sh/lj4855x88xqgpw006s7bny180000gn/T//ccZ3NiRc.s:2255   .debug_loc:00000083 .LLST18
/var/folders/sh/lj4855x88xqgpw006s7bny180000gn/T//ccZ3NiRc.s:2248   .debug_loc:0000007d .LVUS18
/var/folders/sh/lj4855x88xqgpw006s7bny180000gn/T//ccZ3NiRc.s:2286   .debug_loc:000000bb .LLST19
/var/folders/sh/lj4855x88xqgpw006s7bny180000gn/T//ccZ3NiRc.s:2281   .debug_loc:000000b7 .LVUS19
/var/folders/sh/lj4855x88xqgpw006s7bny180000gn/T//ccZ3NiRc.s:2302   .debug_loc:000000dd .LLST20
/var/folders/sh/lj4855x88xqgpw006s7bny180000gn/T//ccZ3NiRc.s:2297   .debug_loc:000000d9 .LVUS20
/var/folders/sh/lj4855x88xqgpw006s7bny180000gn/T//ccZ3NiRc.s:2320   .debug_loc:00000101 .LLST21
/var/folders/sh/lj4855x88xqgpw006s7bny180000gn/T//ccZ3NiRc.s:2313   .debug_loc:000000fb .LVUS21
/var/folders/sh/lj4855x88xqgpw006s7bny180000gn/T//ccZ3NiRc.s:859    .text.distant_storm:000000a0 .LVL63
/var/folders/sh/lj4855x88xqgpw006s7bny180000gn/T//ccZ3NiRc.s:827    .text.distant_storm:00000090 .LBI43
/var/folders/sh/lj4855x88xqgpw006s7bny180000gn/T//ccZ3NiRc.s:826    .text.distant_storm:00000090 .LBB43
/var/folders/sh/lj4855x88xqgpw006s7bny180000gn/T//ccZ3NiRc.s:839    .text.distant_storm:00000094 .LBE43
/var/folders/sh/lj4855x88xqgpw006s7bny180000gn/T//ccZ3NiRc.s:2342   .debug_loc:00000130 .LLST22
/var/folders/sh/lj4855x88xqgpw006s7bny180000gn/T//ccZ3NiRc.s:2339   .debug_loc:0000012e .LVUS22
/var/folders/sh/lj4855x88xqgpw006s7bny180000gn/T//ccZ3NiRc.s:2352   .debug_loc:00000145 .LLST23
/var/folders/sh/lj4855x88xqgpw006s7bny180000gn/T//ccZ3NiRc.s:2349   .debug_loc:00000143 .LVUS23
/var/folders/sh/lj4855x88xqgpw006s7bny180000gn/T//ccZ3NiRc.s:790    .text.distant_storm:00000070 .LVL52
/var/folders/sh/lj4855x88xqgpw006s7bny180000gn/T//ccZ3NiRc.s:802    .text.distant_storm:0000007c .LVL54
/var/folders/sh/lj4855x88xqgpw006s7bny180000gn/T//ccZ3NiRc.s:813    .text.distant_storm:00000086 .LVL56
/var/folders/sh/lj4855x88xqgpw006s7bny180000gn/T//ccZ3NiRc.s:844    .text.distant_storm:0000009a .LVL60
/var/folders/sh/lj4855x88xqgpw006s7bny180000gn/T//ccZ3NiRc.s:712    .text.distant_storm:00000022 .LVL45
/var/folders/sh/lj4855x88xqgpw006s7bny180000gn/T//ccZ3NiRc.s:353    .text.enhanced_candle:00000000 .LFB19
/var/folders/sh/lj4855x88xqgpw006s7bny180000gn/T//ccZ3NiRc.s:646    .text.enhanced_candle:0000010a .LFE19
/var/folders/sh/lj4855x88xqgpw006s7bny180000gn/T//ccZ3NiRc.s:2368   .debug_loc:00000160 .LLST8
/var/folders/sh/lj4855x88xqgpw006s7bny180000gn/T//ccZ3NiRc.s:2359   .debug_loc:00000158 .LVUS8
/var/folders/sh/lj4855x88xqgpw006s7bny180000gn/T//ccZ3NiRc.s:2414   .debug_loc:000001ae .LLST9
/var/folders/sh/lj4855x88xqgpw006s7bny180000gn/T//ccZ3NiRc.s:2405   .debug_loc:000001a6 .LVUS9
/var/folders/sh/lj4855x88xqgpw006s7bny180000gn/T//ccZ3NiRc.s:2441   .debug_loc:000001e9 .LLST10
/var/folders/sh/lj4855x88xqgpw006s7bny180000gn/T//ccZ3NiRc.s:2434   .debug_loc:000001e3 .LVUS10
/var/folders/sh/lj4855x88xqgpw006s7bny180000gn/T//ccZ3NiRc.s:2470   .debug_loc:0000021f .LLST11
/var/folders/sh/lj4855x88xqgpw006s7bny180000gn/T//ccZ3NiRc.s:2467   .debug_loc:0000021d .LVUS11
/var/folders/sh/lj4855x88xqgpw006s7bny180000gn/T//ccZ3NiRc.s:2487   .debug_loc:0000023b .LLST12
/var/folders/sh/lj4855x88xqgpw006s7bny180000gn/T//ccZ3NiRc.s:2482   .debug_loc:00000237 .LVUS12
/var/folders/sh/lj4855x88xqgpw006s7bny180000gn/T//ccZ3NiRc.s:2538   .debug_loc:00000284 .LLST13
/var/folders/sh/lj4855x88xqgpw006s7bny180000gn/T//ccZ3NiRc.s:2529   .debug_loc:0000027c .LVUS13
/var/folders/sh/lj4855x88xqgpw006s7bny180000gn/T//ccZ3NiRc.s:613    .text.enhanced_candle:000000f8 .LBI34
/var/folders/sh/lj4855x88xqgpw006s7bny180000gn/T//ccZ3NiRc.s:612    .text.enhanced_candle:000000f8 .LBB34
/var/folders/sh/lj4855x88xqgpw006s7bny180000gn/T//ccZ3NiRc.s:625    .text.enhanced_candle:000000fc .LBE34
/var/folders/sh/lj4855x88xqgpw006s7bny180000gn/T//ccZ3NiRc.s:2671   .debug_loc:0000032f .LLST14
/var/folders/sh/lj4855x88xqgpw006s7bny180000gn/T//ccZ3NiRc.s:2668   .debug_loc:0000032d .LVUS14
/var/folders/sh/lj4855x88xqgpw006s7bny180000gn/T//ccZ3NiRc.s:2681   .debug_loc:00000344 .LLST15
/var/folders/sh/lj4855x88xqgpw006s7bny180000gn/T//ccZ3NiRc.s:2678   .debug_loc:00000342 .LVUS15
/var/folders/sh/lj4855x88xqgpw006s7bny180000gn/T//ccZ3NiRc.s:499    .text.enhanced_candle:0000007c .LVL28
/var/folders/sh/lj4855x88xqgpw006s7bny180000gn/T//ccZ3NiRc.s:514    .text.enhanced_candle:00000088 .LVL31
/var/folders/sh/lj4855x88xqgpw006s7bny180000gn/T//ccZ3NiRc.s:534    .text.enhanced_candle:000000a0 .LVL33
/var/folders/sh/lj4855x88xqgpw006s7bny180000gn/T//ccZ3NiRc.s:544    .text.enhanced_candle:000000aa .LVL34
/var/folders/sh/lj4855x88xqgpw006s7bny180000gn/T//ccZ3NiRc.s:629    .text.enhanced_candle:000000fe .LVL40
/var/folders/sh/lj4855x88xqgpw006s7bny180000gn/T//ccZ3NiRc.s:636    .text.enhanced_candle:00000106 .LVL41
GAS LISTING /var/folders/sh/lj4855x88xqgpw006s7bny180000gn/T//ccZ3NiRc.s 			page 75


/var/folders/sh/lj4855x88xqgpw006s7bny180000gn/T//ccZ3NiRc.s:138    .text.gentle_flicker:00000000 .LFB18
/var/folders/sh/lj4855x88xqgpw006s7bny180000gn/T//ccZ3NiRc.s:346    .text.gentle_flicker:000000aa .LFE18
/var/folders/sh/lj4855x88xqgpw006s7bny180000gn/T//ccZ3NiRc.s:2697   .debug_loc:0000035f .LLST1
/var/folders/sh/lj4855x88xqgpw006s7bny180000gn/T//ccZ3NiRc.s:2688   .debug_loc:00000357 .LVUS1
/var/folders/sh/lj4855x88xqgpw006s7bny180000gn/T//ccZ3NiRc.s:2741   .debug_loc:000003ab .LLST2
/var/folders/sh/lj4855x88xqgpw006s7bny180000gn/T//ccZ3NiRc.s:2734   .debug_loc:000003a5 .LVUS2
/var/folders/sh/lj4855x88xqgpw006s7bny180000gn/T//ccZ3NiRc.s:2774   .debug_loc:000003e5 .LLST3
/var/folders/sh/lj4855x88xqgpw006s7bny180000gn/T//ccZ3NiRc.s:2767   .debug_loc:000003df .LVUS3
/var/folders/sh/lj4855x88xqgpw006s7bny180000gn/T//ccZ3NiRc.s:2806   .debug_loc:0000041f .LLST4
/var/folders/sh/lj4855x88xqgpw006s7bny180000gn/T//ccZ3NiRc.s:2801   .debug_loc:0000041b .LVUS4
/var/folders/sh/lj4855x88xqgpw006s7bny180000gn/T//ccZ3NiRc.s:2829   .debug_loc:00000449 .LLST5
/var/folders/sh/lj4855x88xqgpw006s7bny180000gn/T//ccZ3NiRc.s:2824   .debug_loc:00000445 .LVUS5
/var/folders/sh/lj4855x88xqgpw006s7bny180000gn/T//ccZ3NiRc.s:296    .text.gentle_flicker:0000008a .LBI27
/var/folders/sh/lj4855x88xqgpw006s7bny180000gn/T//ccZ3NiRc.s:295    .text.gentle_flicker:0000008a .LBB27
/var/folders/sh/lj4855x88xqgpw006s7bny180000gn/T//ccZ3NiRc.s:308    .text.gentle_flicker:0000008e .LBE27
/var/folders/sh/lj4855x88xqgpw006s7bny180000gn/T//ccZ3NiRc.s:2859   .debug_loc:0000047c .LLST6
/var/folders/sh/lj4855x88xqgpw006s7bny180000gn/T//ccZ3NiRc.s:2856   .debug_loc:0000047a .LVUS6
/var/folders/sh/lj4855x88xqgpw006s7bny180000gn/T//ccZ3NiRc.s:2869   .debug_loc:00000491 .LLST7
/var/folders/sh/lj4855x88xqgpw006s7bny180000gn/T//ccZ3NiRc.s:2866   .debug_loc:0000048f .LVUS7
/var/folders/sh/lj4855x88xqgpw006s7bny180000gn/T//ccZ3NiRc.s:256    .text.gentle_flicker:00000064 .LVL11
/var/folders/sh/lj4855x88xqgpw006s7bny180000gn/T//ccZ3NiRc.s:266    .text.gentle_flicker:0000006e .LVL12
/var/folders/sh/lj4855x88xqgpw006s7bny180000gn/T//ccZ3NiRc.s:312    .text.gentle_flicker:00000090 .LVL16
/var/folders/sh/lj4855x88xqgpw006s7bny180000gn/T//ccZ3NiRc.s:319    .text.gentle_flicker:00000098 .LVL17
/var/folders/sh/lj4855x88xqgpw006s7bny180000gn/T//ccZ3NiRc.s:332    .text.gentle_flicker:0000009e .LVL19
/var/folders/sh/lj4855x88xqgpw006s7bny180000gn/T//ccZ3NiRc.s:78     .text.custom_delay_ms:00000000 .LFB17
/var/folders/sh/lj4855x88xqgpw006s7bny180000gn/T//ccZ3NiRc.s:131    .text.custom_delay_ms:00000018 .LFE17
/var/folders/sh/lj4855x88xqgpw006s7bny180000gn/T//ccZ3NiRc.s:2881   .debug_loc:000004a8 .LLST0
/var/folders/sh/lj4855x88xqgpw006s7bny180000gn/T//ccZ3NiRc.s:2876   .debug_loc:000004a4 .LVUS0
/var/folders/sh/lj4855x88xqgpw006s7bny180000gn/T//ccZ3NiRc.s:103    .text.custom_delay_ms:0000000a .LBI21
/var/folders/sh/lj4855x88xqgpw006s7bny180000gn/T//ccZ3NiRc.s:14     .text.setup:00000000 .LFB15
/var/folders/sh/lj4855x88xqgpw006s7bny180000gn/T//ccZ3NiRc.s:47     .text.setup:00000018 .LFE15
/var/folders/sh/lj4855x88xqgpw006s7bny180000gn/T//ccZ3NiRc.s:907    .text.startup.main:00000000 .LFB14
/var/folders/sh/lj4855x88xqgpw006s7bny180000gn/T//ccZ3NiRc.s:939    .text.startup.main:0000001a .LFE14
/var/folders/sh/lj4855x88xqgpw006s7bny180000gn/T//ccZ3NiRc.s:916    .text.startup.main:00000002 .LVL71
/var/folders/sh/lj4855x88xqgpw006s7bny180000gn/T//ccZ3NiRc.s:922    .text.startup.main:00000008 .LVL72
/var/folders/sh/lj4855x88xqgpw006s7bny180000gn/T//ccZ3NiRc.s:928    .text.startup.main:0000000e .LVL73
/var/folders/sh/lj4855x88xqgpw006s7bny180000gn/T//ccZ3NiRc.s:933    .text.startup.main:00000014 .LVL74
/var/folders/sh/lj4855x88xqgpw006s7bny180000gn/T//ccZ3NiRc.s:54     .text.set_led_brightness:00000000 .LFB16
/var/folders/sh/lj4855x88xqgpw006s7bny180000gn/T//ccZ3NiRc.s:71     .text.set_led_brightness:00000006 .LFE16
/var/folders/sh/lj4855x88xqgpw006s7bny180000gn/T//ccZ3NiRc.s:652    .text.distant_storm:00000000 .LVL43
/var/folders/sh/lj4855x88xqgpw006s7bny180000gn/T//ccZ3NiRc.s:770    .text.distant_storm:00000062 .LVL49
/var/folders/sh/lj4855x88xqgpw006s7bny180000gn/T//ccZ3NiRc.s:778    .text.distant_storm:0000006a .LVL51
/var/folders/sh/lj4855x88xqgpw006s7bny180000gn/T//ccZ3NiRc.s:744    .text.distant_storm:00000044 .LVL47
/var/folders/sh/lj4855x88xqgpw006s7bny180000gn/T//ccZ3NiRc.s:773    .text.distant_storm:00000064 .LVL50
/var/folders/sh/lj4855x88xqgpw006s7bny180000gn/T//ccZ3NiRc.s:820    .text.distant_storm:0000008e .LVL57
/var/folders/sh/lj4855x88xqgpw006s7bny180000gn/T//ccZ3NiRc.s:823    .text.distant_storm:00000090 .LVL58
/var/folders/sh/lj4855x88xqgpw006s7bny180000gn/T//ccZ3NiRc.s:719    .text.distant_storm:0000002a .LVL46
/var/folders/sh/lj4855x88xqgpw006s7bny180000gn/T//ccZ3NiRc.s:758    .text.distant_storm:0000004e .LVL48
/var/folders/sh/lj4855x88xqgpw006s7bny180000gn/T//ccZ3NiRc.s:798    .text.distant_storm:0000007a .LVL53
/var/folders/sh/lj4855x88xqgpw006s7bny180000gn/T//ccZ3NiRc.s:852    .text.distant_storm:0000009e .LVL62
/var/folders/sh/lj4855x88xqgpw006s7bny180000gn/T//ccZ3NiRc.s:869    .text.distant_storm:000000aa .LVL65
/var/folders/sh/lj4855x88xqgpw006s7bny180000gn/T//ccZ3NiRc.s:809    .text.distant_storm:00000084 .LVL55
/var/folders/sh/lj4855x88xqgpw006s7bny180000gn/T//ccZ3NiRc.s:890    .text.distant_storm:000000be .LVL69
/var/folders/sh/lj4855x88xqgpw006s7bny180000gn/T//ccZ3NiRc.s:863    .text.distant_storm:000000a4 .LVL64
/var/folders/sh/lj4855x88xqgpw006s7bny180000gn/T//ccZ3NiRc.s:874    .text.distant_storm:000000ae .LVL66
/var/folders/sh/lj4855x88xqgpw006s7bny180000gn/T//ccZ3NiRc.s:879    .text.distant_storm:000000b4 .LVL67
/var/folders/sh/lj4855x88xqgpw006s7bny180000gn/T//ccZ3NiRc.s:887    .text.distant_storm:000000bc .LVL68
GAS LISTING /var/folders/sh/lj4855x88xqgpw006s7bny180000gn/T//ccZ3NiRc.s 			page 76


/var/folders/sh/lj4855x88xqgpw006s7bny180000gn/T//ccZ3NiRc.s:836    .text.distant_storm:00000094 .LVL59
/var/folders/sh/lj4855x88xqgpw006s7bny180000gn/T//ccZ3NiRc.s:352    .text.enhanced_candle:00000000 .LVL21
/var/folders/sh/lj4855x88xqgpw006s7bny180000gn/T//ccZ3NiRc.s:446    .text.enhanced_candle:00000046 .LVL23
/var/folders/sh/lj4855x88xqgpw006s7bny180000gn/T//ccZ3NiRc.s:474    .text.enhanced_candle:00000068 .LVL25
/var/folders/sh/lj4855x88xqgpw006s7bny180000gn/T//ccZ3NiRc.s:482    .text.enhanced_candle:00000070 .LVL27
/var/folders/sh/lj4855x88xqgpw006s7bny180000gn/T//ccZ3NiRc.s:414    .text.enhanced_candle:00000024 .LVL22
/var/folders/sh/lj4855x88xqgpw006s7bny180000gn/T//ccZ3NiRc.s:479    .text.enhanced_candle:0000006e .LVL26
/var/folders/sh/lj4855x88xqgpw006s7bny180000gn/T//ccZ3NiRc.s:506    .text.enhanced_candle:00000084 .LVL29
/var/folders/sh/lj4855x88xqgpw006s7bny180000gn/T//ccZ3NiRc.s:509    .text.enhanced_candle:00000086 .LVL30
/var/folders/sh/lj4855x88xqgpw006s7bny180000gn/T//ccZ3NiRc.s:460    .text.enhanced_candle:00000050 .LVL24
/var/folders/sh/lj4855x88xqgpw006s7bny180000gn/T//ccZ3NiRc.s:530    .text.enhanced_candle:0000009e .LVL32
/var/folders/sh/lj4855x88xqgpw006s7bny180000gn/T//ccZ3NiRc.s:553    .text.enhanced_candle:000000b4 .LVL35
/var/folders/sh/lj4855x88xqgpw006s7bny180000gn/T//ccZ3NiRc.s:565    .text.enhanced_candle:000000bc .LVL36
/var/folders/sh/lj4855x88xqgpw006s7bny180000gn/T//ccZ3NiRc.s:579    .text.enhanced_candle:000000ce .LVL37
/var/folders/sh/lj4855x88xqgpw006s7bny180000gn/T//ccZ3NiRc.s:611    .text.enhanced_candle:000000f8 .LVL38
/var/folders/sh/lj4855x88xqgpw006s7bny180000gn/T//ccZ3NiRc.s:622    .text.enhanced_candle:000000fc .LVL39
/var/folders/sh/lj4855x88xqgpw006s7bny180000gn/T//ccZ3NiRc.s:137    .text.gentle_flicker:00000000 .LVL5
/var/folders/sh/lj4855x88xqgpw006s7bny180000gn/T//ccZ3NiRc.s:217    .text.gentle_flicker:0000003e .LVL7
/var/folders/sh/lj4855x88xqgpw006s7bny180000gn/T//ccZ3NiRc.s:245    .text.gentle_flicker:00000060 .LVL9
/var/folders/sh/lj4855x88xqgpw006s7bny180000gn/T//ccZ3NiRc.s:248    .text.gentle_flicker:00000062 .LVL10
/var/folders/sh/lj4855x88xqgpw006s7bny180000gn/T//ccZ3NiRc.s:190    .text.gentle_flicker:0000001e .LVL6
/var/folders/sh/lj4855x88xqgpw006s7bny180000gn/T//ccZ3NiRc.s:231    .text.gentle_flicker:00000048 .LVL8
/var/folders/sh/lj4855x88xqgpw006s7bny180000gn/T//ccZ3NiRc.s:274    .text.gentle_flicker:00000078 .LVL13
/var/folders/sh/lj4855x88xqgpw006s7bny180000gn/T//ccZ3NiRc.s:294    .text.gentle_flicker:0000008a .LVL14
/var/folders/sh/lj4855x88xqgpw006s7bny180000gn/T//ccZ3NiRc.s:340    .text.gentle_flicker:000000a8 .LVL20
/var/folders/sh/lj4855x88xqgpw006s7bny180000gn/T//ccZ3NiRc.s:305    .text.gentle_flicker:0000008e .LVL15
/var/folders/sh/lj4855x88xqgpw006s7bny180000gn/T//ccZ3NiRc.s:77     .text.custom_delay_ms:00000000 .LVL1
/var/folders/sh/lj4855x88xqgpw006s7bny180000gn/T//ccZ3NiRc.s:88     .text.custom_delay_ms:00000002 .LVL2
/var/folders/sh/lj4855x88xqgpw006s7bny180000gn/T//ccZ3NiRc.s:947    .debug_info:00000000 .Ldebug_info0
/var/folders/sh/lj4855x88xqgpw006s7bny180000gn/T//ccZ3NiRc.s:102    .text.custom_delay_ms:0000000a .LBB21
/var/folders/sh/lj4855x88xqgpw006s7bny180000gn/T//ccZ3NiRc.s:114    .text.custom_delay_ms:0000000a .LBE21
/var/folders/sh/lj4855x88xqgpw006s7bny180000gn/T//ccZ3NiRc.s:117    .text.custom_delay_ms:0000000a .LBB24
/var/folders/sh/lj4855x88xqgpw006s7bny180000gn/T//ccZ3NiRc.s:129    .text.custom_delay_ms:00000018 .LBE24
/var/folders/sh/lj4855x88xqgpw006s7bny180000gn/T//ccZ3NiRc.s:192    .text.gentle_flicker:0000001e .LBB25
/var/folders/sh/lj4855x88xqgpw006s7bny180000gn/T//ccZ3NiRc.s:227    .text.gentle_flicker:00000044 .LBE25
/var/folders/sh/lj4855x88xqgpw006s7bny180000gn/T//ccZ3NiRc.s:250    .text.gentle_flicker:00000062 .LBB31
/var/folders/sh/lj4855x88xqgpw006s7bny180000gn/T//ccZ3NiRc.s:344    .text.gentle_flicker:000000aa .LBE31
/var/folders/sh/lj4855x88xqgpw006s7bny180000gn/T//ccZ3NiRc.s:197    .text.gentle_flicker:00000022 .LBB26
/var/folders/sh/lj4855x88xqgpw006s7bny180000gn/T//ccZ3NiRc.s:220    .text.gentle_flicker:0000003e .LBE26
/var/folders/sh/lj4855x88xqgpw006s7bny180000gn/T//ccZ3NiRc.s:251    .text.gentle_flicker:00000062 .LBB29
/var/folders/sh/lj4855x88xqgpw006s7bny180000gn/T//ccZ3NiRc.s:320    .text.gentle_flicker:00000098 .LBE29
/var/folders/sh/lj4855x88xqgpw006s7bny180000gn/T//ccZ3NiRc.s:328    .text.gentle_flicker:0000009c .LBB30
/var/folders/sh/lj4855x88xqgpw006s7bny180000gn/T//ccZ3NiRc.s:343    .text.gentle_flicker:000000aa .LBE30
/var/folders/sh/lj4855x88xqgpw006s7bny180000gn/T//ccZ3NiRc.s:417    .text.enhanced_candle:00000024 .LBB32
/var/folders/sh/lj4855x88xqgpw006s7bny180000gn/T//ccZ3NiRc.s:422    .text.enhanced_candle:00000028 .LBE32
/var/folders/sh/lj4855x88xqgpw006s7bny180000gn/T//ccZ3NiRc.s:425    .text.enhanced_candle:0000002a .LBB38
/var/folders/sh/lj4855x88xqgpw006s7bny180000gn/T//ccZ3NiRc.s:456    .text.enhanced_candle:0000004c .LBE38
/var/folders/sh/lj4855x88xqgpw006s7bny180000gn/T//ccZ3NiRc.s:484    .text.enhanced_candle:00000070 .LBB39
/var/folders/sh/lj4855x88xqgpw006s7bny180000gn/T//ccZ3NiRc.s:644    .text.enhanced_candle:0000010a .LBE39
/var/folders/sh/lj4855x88xqgpw006s7bny180000gn/T//ccZ3NiRc.s:430    .text.enhanced_candle:00000030 .LBB33
/var/folders/sh/lj4855x88xqgpw006s7bny180000gn/T//ccZ3NiRc.s:449    .text.enhanced_candle:00000046 .LBE33
/var/folders/sh/lj4855x88xqgpw006s7bny180000gn/T//ccZ3NiRc.s:485    .text.enhanced_candle:00000070 .LBB36
/var/folders/sh/lj4855x88xqgpw006s7bny180000gn/T//ccZ3NiRc.s:487    .text.enhanced_candle:00000070 .LBE36
/var/folders/sh/lj4855x88xqgpw006s7bny180000gn/T//ccZ3NiRc.s:492    .text.enhanced_candle:00000076 .LBB37
/var/folders/sh/lj4855x88xqgpw006s7bny180000gn/T//ccZ3NiRc.s:637    .text.enhanced_candle:00000106 .LBE37
/var/folders/sh/lj4855x88xqgpw006s7bny180000gn/T//ccZ3NiRc.s:721    .text.distant_storm:0000002a .LBB40
/var/folders/sh/lj4855x88xqgpw006s7bny180000gn/T//ccZ3NiRc.s:754    .text.distant_storm:0000004a .LBE40
GAS LISTING /var/folders/sh/lj4855x88xqgpw006s7bny180000gn/T//ccZ3NiRc.s 			page 77


/var/folders/sh/lj4855x88xqgpw006s7bny180000gn/T//ccZ3NiRc.s:780    .text.distant_storm:0000006a .LBB48
/var/folders/sh/lj4855x88xqgpw006s7bny180000gn/T//ccZ3NiRc.s:899    .text.distant_storm:000000c2 .LBE48
/var/folders/sh/lj4855x88xqgpw006s7bny180000gn/T//ccZ3NiRc.s:726    .text.distant_storm:0000002e .LBB41
/var/folders/sh/lj4855x88xqgpw006s7bny180000gn/T//ccZ3NiRc.s:747    .text.distant_storm:00000044 .LBE41
/var/folders/sh/lj4855x88xqgpw006s7bny180000gn/T//ccZ3NiRc.s:781    .text.distant_storm:0000006a .LBB46
/var/folders/sh/lj4855x88xqgpw006s7bny180000gn/T//ccZ3NiRc.s:845    .text.distant_storm:0000009a .LBE46
/var/folders/sh/lj4855x88xqgpw006s7bny180000gn/T//ccZ3NiRc.s:854    .text.distant_storm:0000009e .LBB47
/var/folders/sh/lj4855x88xqgpw006s7bny180000gn/T//ccZ3NiRc.s:898    .text.distant_storm:000000c2 .LBE47
/var/folders/sh/lj4855x88xqgpw006s7bny180000gn/T//ccZ3NiRc.s:727    .text.distant_storm:0000002e .LBB42
/var/folders/sh/lj4855x88xqgpw006s7bny180000gn/T//ccZ3NiRc.s:731    .text.distant_storm:00000032 .LBE42
/var/folders/sh/lj4855x88xqgpw006s7bny180000gn/T//ccZ3NiRc.s:855    .text.distant_storm:0000009e .LBB45
/var/folders/sh/lj4855x88xqgpw006s7bny180000gn/T//ccZ3NiRc.s:897    .text.distant_storm:000000c2 .LBE45

UNDEFINED SYMBOLS
rand
__divmodhi4
__udivmodhi4
__mulhi3
