GAS LISTING /var/folders/sh/lj4855x88xqgpw006s7bny180000gn/T//ccZ3NiRc.s 			page 1


   1               		.file	"halloween_candle.c"
   2               	__SP_H__ = 0x3e
   3               	__SP_L__ = 0x3d
   4               	__SREG__ = 0x3f
   5               	__tmp_reg__ = 0
   6               	__zero_reg__ = 1
   7               		.text
   8               	.Ltext0:
   9               		.cfi_sections	.debug_frame
  10               		.section	.text.setup,"ax",@progbits
  11               	.global	setup
  12               		.type	setup, @function
  13               	setup:
  14               	.LFB15:
  15               		.file 1 "halloween_candle.c"
   1:halloween_candle.c **** #define F_CPU 1000000UL
   2:halloween_candle.c **** 
   3:halloween_candle.c **** #include <avr/io.h>
   4:halloween_candle.c **** #include <util/delay.h>
   5:halloween_candle.c **** #include <stdlib.h>
   6:halloween_candle.c **** 
   7:halloween_candle.c **** #define LED1_PIN PB4
   8:halloween_candle.c **** #define LED2_PIN PB3
   9:halloween_candle.c **** 
  10:halloween_candle.c **** void setup(void);
  11:halloween_candle.c **** void set_led_brightness(uint8_t led1, uint8_t led2);
  12:halloween_candle.c **** void gentle_flicker(uint16_t duration);
  13:halloween_candle.c **** void enhanced_candle(uint16_t duration);
  14:halloween_candle.c **** void distant_storm(uint16_t duration);
  15:halloween_candle.c **** void custom_delay_ms(uint16_t ms);
  16:halloween_candle.c **** 
  17:halloween_candle.c **** int main(void) {
  18:halloween_candle.c ****     setup();
  19:halloween_candle.c ****     
  20:halloween_candle.c ****     // Short demo period (5 seconds each)
  21:halloween_candle.c ****    // gentle_flicker(50);    // 5 seconds
  22:halloween_candle.c ****     //enhanced_candle(50);   // 5 seconds
  23:halloween_candle.c ****     distant_storm(1000);     // 5 seconds
  24:halloween_candle.c **** 
  25:halloween_candle.c ****     // Main loop - 5 minutes each, no pause between
  26:halloween_candle.c ****     while (1) {
  27:halloween_candle.c ****         gentle_flicker(3000);   // 5 minutes (3000 * 100ms = 300000ms = 5 minutes)
  28:halloween_candle.c ****         enhanced_candle(600);  // 5 minutes
  29:halloween_candle.c ****         distant_storm(3000);    // 5 minutes
  30:halloween_candle.c ****     }
  31:halloween_candle.c **** }
  32:halloween_candle.c **** 
  33:halloween_candle.c **** void setup(void) {
  16               		.loc 1 33 18 view -0
  17               		.cfi_startproc
  18               	/* prologue: function */
  19               	/* frame size = 0 */
  20               	/* stack size = 0 */
  21               	.L__stack_usage = 0
  34:halloween_candle.c ****     DDRB |= (1 << LED1_PIN) | (1 << LED2_PIN);
  22               		.loc 1 34 5 view .LVU1
  23               		.loc 1 34 10 is_stmt 0 view .LVU2
GAS LISTING /var/folders/sh/lj4855x88xqgpw006s7bny180000gn/T//ccZ3NiRc.s 			page 2


  24 0000 87B3      		in r24,0x17
  25 0002 8861      		ori r24,lo8(24)
  26 0004 87BB      		out 0x17,r24
  35:halloween_candle.c ****     TCCR0A = (1 << COM0A1) | (1 << WGM00) | (1 << WGM01);
  27               		.loc 1 35 5 is_stmt 1 view .LVU3
  28               		.loc 1 35 12 is_stmt 0 view .LVU4
  29 0006 83E8      		ldi r24,lo8(-125)
  30 0008 8ABD      		out 0x2a,r24
  36:halloween_candle.c ****     TCCR0B = (1 << CS00);
  31               		.loc 1 36 5 is_stmt 1 view .LVU5
  32               		.loc 1 36 12 is_stmt 0 view .LVU6
  33 000a 81E0      		ldi r24,lo8(1)
  34 000c 83BF      		out 0x33,r24
  37:halloween_candle.c ****     TCCR1 = (1 << PWM1B) | (1 << COM1B0) | (1 << CS10);
  35               		.loc 1 37 5 is_stmt 1 view .LVU7
  36               		.loc 1 37 11 is_stmt 0 view .LVU8
  37 000e 81E5      		ldi r24,lo8(81)
  38 0010 80BF      		out 0x30,r24
  38:halloween_candle.c ****     GTCCR = (1 << PWM1B) | (1 << COM1B0);
  39               		.loc 1 38 5 is_stmt 1 view .LVU9
  40               		.loc 1 38 11 is_stmt 0 view .LVU10
  41 0012 80E5      		ldi r24,lo8(80)
  42 0014 8CBD      		out 0x2c,r24
  43               	/* epilogue start */
  39:halloween_candle.c **** }
  44               		.loc 1 39 1 view .LVU11
  45 0016 0895      		ret
  46               		.cfi_endproc
  47               	.LFE15:
  48               		.size	setup, .-setup
  49               		.section	.text.set_led_brightness,"ax",@progbits
  50               	.global	set_led_brightness
  51               		.type	set_led_brightness, @function
  52               	set_led_brightness:
  53               	.LVL0:
  54               	.LFB16:
  40:halloween_candle.c **** 
  41:halloween_candle.c **** void set_led_brightness(uint8_t led1, uint8_t led2) {
  55               		.loc 1 41 53 is_stmt 1 view -0
  56               		.cfi_startproc
  57               	/* prologue: function */
  58               	/* frame size = 0 */
  59               	/* stack size = 0 */
  60               	.L__stack_usage = 0
  42:halloween_candle.c ****     OCR0A = led1;
  61               		.loc 1 42 5 view .LVU13
  62               		.loc 1 42 11 is_stmt 0 view .LVU14
  63 0000 89BD      		out 0x29,r24
  43:halloween_candle.c ****     OCR1B = led2;
  64               		.loc 1 43 5 is_stmt 1 view .LVU15
  65               		.loc 1 43 11 is_stmt 0 view .LVU16
  66 0002 6BBD      		out 0x2b,r22
  67               	/* epilogue start */
  44:halloween_candle.c **** }
  68               		.loc 1 44 1 view .LVU17
  69 0004 0895      		ret
  70               		.cfi_endproc
GAS LISTING /var/folders/sh/lj4855x88xqgpw006s7bny180000gn/T//ccZ3NiRc.s 			page 3


  71               	.LFE16:
  72               		.size	set_led_brightness, .-set_led_brightness
  73               		.section	.text.custom_delay_ms,"ax",@progbits
  74               	.global	custom_delay_ms
  75               		.type	custom_delay_ms, @function
  76               	custom_delay_ms:
  77               	.LVL1:
  78               	.LFB17:
  45:halloween_candle.c **** 
  46:halloween_candle.c **** void custom_delay_ms(uint16_t ms) {
  79               		.loc 1 46 35 is_stmt 1 view -0
  80               		.cfi_startproc
  81               	/* prologue: function */
  82               	/* frame size = 0 */
  83               	/* stack size = 0 */
  84               	.L__stack_usage = 0
  85               		.loc 1 46 35 is_stmt 0 view .LVU19
  86 0000 9C01      		movw r18,r24
  47:halloween_candle.c ****     while (ms--) {
  87               		.loc 1 47 5 is_stmt 1 view .LVU20
  88               	.LVL2:
  89               	.L4:
  90               		.loc 1 47 11 view .LVU21
  91               		.loc 1 47 14 is_stmt 0 view .LVU22
  92               	.LVL3:
  93 0002 2150      		subi r18,1
  94 0004 3109      		sbc r19,__zero_reg__
  95 0006 00F4      		brcc .L5
  96               	/* epilogue start */
  48:halloween_candle.c ****         _delay_ms(1);
  49:halloween_candle.c ****     }
  50:halloween_candle.c **** }
  97               		.loc 1 50 1 view .LVU23
  98 0008 0895      		ret
  99               	.L5:
  48:halloween_candle.c ****         _delay_ms(1);
 100               		.loc 1 48 9 is_stmt 1 view .LVU24
 101               	.LVL4:
 102               	.LBB21:
 103               	.LBI21:
 104               		.file 2 "/usr/local/Cellar/avr-gcc@9/9.4.0_1/avr/include/util/delay.h"
   1:/usr/local/Cellar/avr-gcc@9/9.4.0_1/avr/include/util/delay.h **** /* Copyright (c) 2002, Marek Michalkiewicz
   2:/usr/local/Cellar/avr-gcc@9/9.4.0_1/avr/include/util/delay.h ****    Copyright (c) 2004,2005,2007 Joerg Wunsch
   3:/usr/local/Cellar/avr-gcc@9/9.4.0_1/avr/include/util/delay.h ****    Copyright (c) 2007  Florin-Viorel Petrov
   4:/usr/local/Cellar/avr-gcc@9/9.4.0_1/avr/include/util/delay.h ****    All rights reserved.
   5:/usr/local/Cellar/avr-gcc@9/9.4.0_1/avr/include/util/delay.h **** 
   6:/usr/local/Cellar/avr-gcc@9/9.4.0_1/avr/include/util/delay.h ****    Redistribution and use in source and binary forms, with or without
   7:/usr/local/Cellar/avr-gcc@9/9.4.0_1/avr/include/util/delay.h ****    modification, are permitted provided that the following conditions are met:
   8:/usr/local/Cellar/avr-gcc@9/9.4.0_1/avr/include/util/delay.h **** 
   9:/usr/local/Cellar/avr-gcc@9/9.4.0_1/avr/include/util/delay.h ****    * Redistributions of source code must retain the above copyright
  10:/usr/local/Cellar/avr-gcc@9/9.4.0_1/avr/include/util/delay.h ****      notice, this list of conditions and the following disclaimer.
  11:/usr/local/Cellar/avr-gcc@9/9.4.0_1/avr/include/util/delay.h **** 
  12:/usr/local/Cellar/avr-gcc@9/9.4.0_1/avr/include/util/delay.h ****    * Redistributions in binary form must reproduce the above copyright
  13:/usr/local/Cellar/avr-gcc@9/9.4.0_1/avr/include/util/delay.h ****      notice, this list of conditions and the following disclaimer in
  14:/usr/local/Cellar/avr-gcc@9/9.4.0_1/avr/include/util/delay.h ****      the documentation and/or other materials provided with the
  15:/usr/local/Cellar/avr-gcc@9/9.4.0_1/avr/include/util/delay.h ****      distribution.
  16:/usr/local/Cellar/avr-gcc@9/9.4.0_1/avr/include/util/delay.h **** 
GAS LISTING /var/folders/sh/lj4855x88xqgpw006s7bny180000gn/T//ccZ3NiRc.s 			page 4


  17:/usr/local/Cellar/avr-gcc@9/9.4.0_1/avr/include/util/delay.h ****    * Neither the name of the copyright holders nor the names of
  18:/usr/local/Cellar/avr-gcc@9/9.4.0_1/avr/include/util/delay.h ****      contributors may be used to endorse or promote products derived
  19:/usr/local/Cellar/avr-gcc@9/9.4.0_1/avr/include/util/delay.h ****      from this software without specific prior written permission.
  20:/usr/local/Cellar/avr-gcc@9/9.4.0_1/avr/include/util/delay.h **** 
  21:/usr/local/Cellar/avr-gcc@9/9.4.0_1/avr/include/util/delay.h ****   THIS SOFTWARE IS PROVIDED BY THE COPYRIGHT HOLDERS AND CONTRIBUTORS "AS IS"
  22:/usr/local/Cellar/avr-gcc@9/9.4.0_1/avr/include/util/delay.h ****   AND ANY EXPRESS OR IMPLIED WARRANTIES, INCLUDING, BUT NOT LIMITED TO, THE
  23:/usr/local/Cellar/avr-gcc@9/9.4.0_1/avr/include/util/delay.h ****   IMPLIED WARRANTIES OF MERCHANTABILITY AND FITNESS FOR A PARTICULAR PURPOSE
  24:/usr/local/Cellar/avr-gcc@9/9.4.0_1/avr/include/util/delay.h ****   ARE DISCLAIMED. IN NO EVENT SHALL THE COPYRIGHT OWNER OR CONTRIBUTORS BE
  25:/usr/local/Cellar/avr-gcc@9/9.4.0_1/avr/include/util/delay.h ****   LIABLE FOR ANY DIRECT, INDIRECT, INCIDENTAL, SPECIAL, EXEMPLARY, OR
  26:/usr/local/Cellar/avr-gcc@9/9.4.0_1/avr/include/util/delay.h ****   CONSEQUENTIAL DAMAGES (INCLUDING, BUT NOT LIMITED TO, PROCUREMENT OF
  27:/usr/local/Cellar/avr-gcc@9/9.4.0_1/avr/include/util/delay.h ****   SUBSTITUTE GOODS OR SERVICES; LOSS OF USE, DATA, OR PROFITS; OR BUSINESS
  28:/usr/local/Cellar/avr-gcc@9/9.4.0_1/avr/include/util/delay.h ****   INTERRUPTION) HOWEVER CAUSED AND ON ANY THEORY OF LIABILITY, WHETHER IN
  29:/usr/local/Cellar/avr-gcc@9/9.4.0_1/avr/include/util/delay.h ****   CONTRACT, STRICT LIABILITY, OR TORT (INCLUDING NEGLIGENCE OR OTHERWISE)
  30:/usr/local/Cellar/avr-gcc@9/9.4.0_1/avr/include/util/delay.h ****   ARISING IN ANY WAY OUT OF THE USE OF THIS SOFTWARE, EVEN IF ADVISED OF THE
  31:/usr/local/Cellar/avr-gcc@9/9.4.0_1/avr/include/util/delay.h ****   POSSIBILITY OF SUCH DAMAGE. */
  32:/usr/local/Cellar/avr-gcc@9/9.4.0_1/avr/include/util/delay.h **** 
  33:/usr/local/Cellar/avr-gcc@9/9.4.0_1/avr/include/util/delay.h **** /* $Id: delay.h.in 2551 2020-10-10 20:33:35Z joerg_wunsch $ */
  34:/usr/local/Cellar/avr-gcc@9/9.4.0_1/avr/include/util/delay.h **** 
  35:/usr/local/Cellar/avr-gcc@9/9.4.0_1/avr/include/util/delay.h **** #ifndef _UTIL_DELAY_H_
  36:/usr/local/Cellar/avr-gcc@9/9.4.0_1/avr/include/util/delay.h **** #define _UTIL_DELAY_H_ 1
  37:/usr/local/Cellar/avr-gcc@9/9.4.0_1/avr/include/util/delay.h **** 
  38:/usr/local/Cellar/avr-gcc@9/9.4.0_1/avr/include/util/delay.h **** #ifndef __DOXYGEN__
  39:/usr/local/Cellar/avr-gcc@9/9.4.0_1/avr/include/util/delay.h **** #  ifndef __HAS_DELAY_CYCLES
  40:/usr/local/Cellar/avr-gcc@9/9.4.0_1/avr/include/util/delay.h **** #    define __HAS_DELAY_CYCLES 1
  41:/usr/local/Cellar/avr-gcc@9/9.4.0_1/avr/include/util/delay.h **** #  endif
  42:/usr/local/Cellar/avr-gcc@9/9.4.0_1/avr/include/util/delay.h **** #endif  /* __DOXYGEN__ */
  43:/usr/local/Cellar/avr-gcc@9/9.4.0_1/avr/include/util/delay.h **** 
  44:/usr/local/Cellar/avr-gcc@9/9.4.0_1/avr/include/util/delay.h **** #include <inttypes.h>
  45:/usr/local/Cellar/avr-gcc@9/9.4.0_1/avr/include/util/delay.h **** #include <util/delay_basic.h>
  46:/usr/local/Cellar/avr-gcc@9/9.4.0_1/avr/include/util/delay.h **** #include <math.h>
  47:/usr/local/Cellar/avr-gcc@9/9.4.0_1/avr/include/util/delay.h **** 
  48:/usr/local/Cellar/avr-gcc@9/9.4.0_1/avr/include/util/delay.h **** /** \file */
  49:/usr/local/Cellar/avr-gcc@9/9.4.0_1/avr/include/util/delay.h **** /** \defgroup util_delay <util/delay.h>: Convenience functions for busy-wait delay loops
  50:/usr/local/Cellar/avr-gcc@9/9.4.0_1/avr/include/util/delay.h ****     \code
  51:/usr/local/Cellar/avr-gcc@9/9.4.0_1/avr/include/util/delay.h ****     #define F_CPU 1000000UL  // 1 MHz
  52:/usr/local/Cellar/avr-gcc@9/9.4.0_1/avr/include/util/delay.h ****     //#define F_CPU 14.7456E6
  53:/usr/local/Cellar/avr-gcc@9/9.4.0_1/avr/include/util/delay.h ****     #include <util/delay.h>
  54:/usr/local/Cellar/avr-gcc@9/9.4.0_1/avr/include/util/delay.h ****     \endcode
  55:/usr/local/Cellar/avr-gcc@9/9.4.0_1/avr/include/util/delay.h **** 
  56:/usr/local/Cellar/avr-gcc@9/9.4.0_1/avr/include/util/delay.h ****     \note As an alternative method, it is possible to pass the
  57:/usr/local/Cellar/avr-gcc@9/9.4.0_1/avr/include/util/delay.h ****     F_CPU macro down to the compiler from the Makefile.
  58:/usr/local/Cellar/avr-gcc@9/9.4.0_1/avr/include/util/delay.h ****     Obviously, in that case, no \c \#define statement should be
  59:/usr/local/Cellar/avr-gcc@9/9.4.0_1/avr/include/util/delay.h ****     used.
  60:/usr/local/Cellar/avr-gcc@9/9.4.0_1/avr/include/util/delay.h **** 
  61:/usr/local/Cellar/avr-gcc@9/9.4.0_1/avr/include/util/delay.h ****     The functions in this header file are wrappers around the basic
  62:/usr/local/Cellar/avr-gcc@9/9.4.0_1/avr/include/util/delay.h ****     busy-wait functions from <util/delay_basic.h>.  They are meant as
  63:/usr/local/Cellar/avr-gcc@9/9.4.0_1/avr/include/util/delay.h ****     convenience functions where actual time values can be specified
  64:/usr/local/Cellar/avr-gcc@9/9.4.0_1/avr/include/util/delay.h ****     rather than a number of cycles to wait for.  The idea behind is
  65:/usr/local/Cellar/avr-gcc@9/9.4.0_1/avr/include/util/delay.h ****     that compile-time constant expressions will be eliminated by
  66:/usr/local/Cellar/avr-gcc@9/9.4.0_1/avr/include/util/delay.h ****     compiler optimization so floating-point expressions can be used
  67:/usr/local/Cellar/avr-gcc@9/9.4.0_1/avr/include/util/delay.h ****     to calculate the number of delay cycles needed based on the CPU
  68:/usr/local/Cellar/avr-gcc@9/9.4.0_1/avr/include/util/delay.h ****     frequency passed by the macro F_CPU.
  69:/usr/local/Cellar/avr-gcc@9/9.4.0_1/avr/include/util/delay.h **** 
  70:/usr/local/Cellar/avr-gcc@9/9.4.0_1/avr/include/util/delay.h ****     \note In order for these functions to work as intended, compiler
  71:/usr/local/Cellar/avr-gcc@9/9.4.0_1/avr/include/util/delay.h ****     optimizations <em>must</em> be enabled, and the delay time
  72:/usr/local/Cellar/avr-gcc@9/9.4.0_1/avr/include/util/delay.h ****     <em>must</em> be an expression that is a known constant at
  73:/usr/local/Cellar/avr-gcc@9/9.4.0_1/avr/include/util/delay.h ****     compile-time.  If these requirements are not met, the resulting
GAS LISTING /var/folders/sh/lj4855x88xqgpw006s7bny180000gn/T//ccZ3NiRc.s 			page 5


  74:/usr/local/Cellar/avr-gcc@9/9.4.0_1/avr/include/util/delay.h ****     delay will be much longer (and basically unpredictable), and
  75:/usr/local/Cellar/avr-gcc@9/9.4.0_1/avr/include/util/delay.h ****     applications that otherwise do not use floating-point calculations
  76:/usr/local/Cellar/avr-gcc@9/9.4.0_1/avr/include/util/delay.h ****     will experience severe code bloat by the floating-point library
  77:/usr/local/Cellar/avr-gcc@9/9.4.0_1/avr/include/util/delay.h ****     routines linked into the application.
  78:/usr/local/Cellar/avr-gcc@9/9.4.0_1/avr/include/util/delay.h **** 
  79:/usr/local/Cellar/avr-gcc@9/9.4.0_1/avr/include/util/delay.h ****     The functions available allow the specification of microsecond, and
  80:/usr/local/Cellar/avr-gcc@9/9.4.0_1/avr/include/util/delay.h ****     millisecond delays directly, using the application-supplied macro
  81:/usr/local/Cellar/avr-gcc@9/9.4.0_1/avr/include/util/delay.h ****     F_CPU as the CPU clock frequency (in Hertz).
  82:/usr/local/Cellar/avr-gcc@9/9.4.0_1/avr/include/util/delay.h **** 
  83:/usr/local/Cellar/avr-gcc@9/9.4.0_1/avr/include/util/delay.h **** */
  84:/usr/local/Cellar/avr-gcc@9/9.4.0_1/avr/include/util/delay.h **** 
  85:/usr/local/Cellar/avr-gcc@9/9.4.0_1/avr/include/util/delay.h **** #if !defined(__DOXYGEN__)
  86:/usr/local/Cellar/avr-gcc@9/9.4.0_1/avr/include/util/delay.h **** static __inline__ void _delay_us(double __us) __attribute__((__always_inline__));
  87:/usr/local/Cellar/avr-gcc@9/9.4.0_1/avr/include/util/delay.h **** static __inline__ void _delay_ms(double __ms) __attribute__((__always_inline__));
  88:/usr/local/Cellar/avr-gcc@9/9.4.0_1/avr/include/util/delay.h **** #endif
  89:/usr/local/Cellar/avr-gcc@9/9.4.0_1/avr/include/util/delay.h **** 
  90:/usr/local/Cellar/avr-gcc@9/9.4.0_1/avr/include/util/delay.h **** #ifndef F_CPU
  91:/usr/local/Cellar/avr-gcc@9/9.4.0_1/avr/include/util/delay.h **** /* prevent compiler error by supplying a default */
  92:/usr/local/Cellar/avr-gcc@9/9.4.0_1/avr/include/util/delay.h **** # warning "F_CPU not defined for <util/delay.h>"
  93:/usr/local/Cellar/avr-gcc@9/9.4.0_1/avr/include/util/delay.h **** /** \ingroup util_delay
  94:/usr/local/Cellar/avr-gcc@9/9.4.0_1/avr/include/util/delay.h ****     \def F_CPU
  95:/usr/local/Cellar/avr-gcc@9/9.4.0_1/avr/include/util/delay.h ****     \brief CPU frequency in Hz
  96:/usr/local/Cellar/avr-gcc@9/9.4.0_1/avr/include/util/delay.h **** 
  97:/usr/local/Cellar/avr-gcc@9/9.4.0_1/avr/include/util/delay.h ****     The macro F_CPU specifies the CPU frequency to be considered by
  98:/usr/local/Cellar/avr-gcc@9/9.4.0_1/avr/include/util/delay.h ****     the delay macros.  This macro is normally supplied by the
  99:/usr/local/Cellar/avr-gcc@9/9.4.0_1/avr/include/util/delay.h ****     environment (e.g. from within a project header, or the project's
 100:/usr/local/Cellar/avr-gcc@9/9.4.0_1/avr/include/util/delay.h ****     Makefile).  The value 1 MHz here is only provided as a "vanilla"
 101:/usr/local/Cellar/avr-gcc@9/9.4.0_1/avr/include/util/delay.h ****     fallback if no such user-provided definition could be found.
 102:/usr/local/Cellar/avr-gcc@9/9.4.0_1/avr/include/util/delay.h **** 
 103:/usr/local/Cellar/avr-gcc@9/9.4.0_1/avr/include/util/delay.h ****     In terms of the delay functions, the CPU frequency can be given as
 104:/usr/local/Cellar/avr-gcc@9/9.4.0_1/avr/include/util/delay.h ****     a floating-point constant (e.g. 3.6864E6 for 3.6864 MHz).
 105:/usr/local/Cellar/avr-gcc@9/9.4.0_1/avr/include/util/delay.h ****     However, the macros in <util/setbaud.h> require it to be an
 106:/usr/local/Cellar/avr-gcc@9/9.4.0_1/avr/include/util/delay.h ****     integer value.
 107:/usr/local/Cellar/avr-gcc@9/9.4.0_1/avr/include/util/delay.h ****  */
 108:/usr/local/Cellar/avr-gcc@9/9.4.0_1/avr/include/util/delay.h **** # define F_CPU 1000000UL
 109:/usr/local/Cellar/avr-gcc@9/9.4.0_1/avr/include/util/delay.h **** #endif
 110:/usr/local/Cellar/avr-gcc@9/9.4.0_1/avr/include/util/delay.h **** 
 111:/usr/local/Cellar/avr-gcc@9/9.4.0_1/avr/include/util/delay.h **** #ifndef __OPTIMIZE__
 112:/usr/local/Cellar/avr-gcc@9/9.4.0_1/avr/include/util/delay.h **** # warning "Compiler optimizations disabled; functions from <util/delay.h> won't work as designed"
 113:/usr/local/Cellar/avr-gcc@9/9.4.0_1/avr/include/util/delay.h **** #endif
 114:/usr/local/Cellar/avr-gcc@9/9.4.0_1/avr/include/util/delay.h **** 
 115:/usr/local/Cellar/avr-gcc@9/9.4.0_1/avr/include/util/delay.h **** #if __HAS_DELAY_CYCLES && defined(__OPTIMIZE__) && \
 116:/usr/local/Cellar/avr-gcc@9/9.4.0_1/avr/include/util/delay.h ****   !defined(__DELAY_BACKWARD_COMPATIBLE__) &&	   \
 117:/usr/local/Cellar/avr-gcc@9/9.4.0_1/avr/include/util/delay.h ****   __STDC_HOSTED__
 118:/usr/local/Cellar/avr-gcc@9/9.4.0_1/avr/include/util/delay.h **** #  include <math.h>
 119:/usr/local/Cellar/avr-gcc@9/9.4.0_1/avr/include/util/delay.h **** #endif
 120:/usr/local/Cellar/avr-gcc@9/9.4.0_1/avr/include/util/delay.h **** 
 121:/usr/local/Cellar/avr-gcc@9/9.4.0_1/avr/include/util/delay.h **** /**
 122:/usr/local/Cellar/avr-gcc@9/9.4.0_1/avr/include/util/delay.h ****    \ingroup util_delay
 123:/usr/local/Cellar/avr-gcc@9/9.4.0_1/avr/include/util/delay.h **** 
 124:/usr/local/Cellar/avr-gcc@9/9.4.0_1/avr/include/util/delay.h ****    Perform a delay of \c __ms milliseconds, using _delay_loop_2().
 125:/usr/local/Cellar/avr-gcc@9/9.4.0_1/avr/include/util/delay.h **** 
 126:/usr/local/Cellar/avr-gcc@9/9.4.0_1/avr/include/util/delay.h ****    The macro F_CPU is supposed to be defined to a
 127:/usr/local/Cellar/avr-gcc@9/9.4.0_1/avr/include/util/delay.h ****    constant defining the CPU clock frequency (in Hertz).
 128:/usr/local/Cellar/avr-gcc@9/9.4.0_1/avr/include/util/delay.h **** 
 129:/usr/local/Cellar/avr-gcc@9/9.4.0_1/avr/include/util/delay.h ****    The maximal possible delay is 262.14 ms / F_CPU in MHz.
 130:/usr/local/Cellar/avr-gcc@9/9.4.0_1/avr/include/util/delay.h **** 
GAS LISTING /var/folders/sh/lj4855x88xqgpw006s7bny180000gn/T//ccZ3NiRc.s 			page 6


 131:/usr/local/Cellar/avr-gcc@9/9.4.0_1/avr/include/util/delay.h ****    When the user request delay which exceed the maximum possible one,
 132:/usr/local/Cellar/avr-gcc@9/9.4.0_1/avr/include/util/delay.h ****    _delay_ms() provides a decreased resolution functionality. In this
 133:/usr/local/Cellar/avr-gcc@9/9.4.0_1/avr/include/util/delay.h ****    mode _delay_ms() will work with a resolution of 1/10 ms, providing
 134:/usr/local/Cellar/avr-gcc@9/9.4.0_1/avr/include/util/delay.h ****    delays up to 6.5535 seconds (independent from CPU frequency).  The
 135:/usr/local/Cellar/avr-gcc@9/9.4.0_1/avr/include/util/delay.h ****    user will not be informed about decreased resolution.
 136:/usr/local/Cellar/avr-gcc@9/9.4.0_1/avr/include/util/delay.h **** 
 137:/usr/local/Cellar/avr-gcc@9/9.4.0_1/avr/include/util/delay.h ****    If the avr-gcc toolchain has __builtin_avr_delay_cycles()
 138:/usr/local/Cellar/avr-gcc@9/9.4.0_1/avr/include/util/delay.h ****    support, maximal possible delay is 4294967.295 ms/ F_CPU in MHz. For
 139:/usr/local/Cellar/avr-gcc@9/9.4.0_1/avr/include/util/delay.h ****    values greater than the maximal possible delay, overflows results in
 140:/usr/local/Cellar/avr-gcc@9/9.4.0_1/avr/include/util/delay.h ****    no delay i.e., 0ms.
 141:/usr/local/Cellar/avr-gcc@9/9.4.0_1/avr/include/util/delay.h **** 
 142:/usr/local/Cellar/avr-gcc@9/9.4.0_1/avr/include/util/delay.h ****    Conversion of \c __ms into clock cycles may not always result in
 143:/usr/local/Cellar/avr-gcc@9/9.4.0_1/avr/include/util/delay.h ****    integer.  By default, the clock cycles rounded up to next
 144:/usr/local/Cellar/avr-gcc@9/9.4.0_1/avr/include/util/delay.h ****    integer. This ensures that the user gets at least \c __ms
 145:/usr/local/Cellar/avr-gcc@9/9.4.0_1/avr/include/util/delay.h ****    microseconds of delay.
 146:/usr/local/Cellar/avr-gcc@9/9.4.0_1/avr/include/util/delay.h **** 
 147:/usr/local/Cellar/avr-gcc@9/9.4.0_1/avr/include/util/delay.h ****    Alternatively, by defining the macro \c __DELAY_ROUND_DOWN__, or
 148:/usr/local/Cellar/avr-gcc@9/9.4.0_1/avr/include/util/delay.h ****    \c __DELAY_ROUND_CLOSEST__, before including this header file, the
 149:/usr/local/Cellar/avr-gcc@9/9.4.0_1/avr/include/util/delay.h ****    algorithm can be made to round down, or round to closest integer,
 150:/usr/local/Cellar/avr-gcc@9/9.4.0_1/avr/include/util/delay.h ****    respectively.
 151:/usr/local/Cellar/avr-gcc@9/9.4.0_1/avr/include/util/delay.h **** 
 152:/usr/local/Cellar/avr-gcc@9/9.4.0_1/avr/include/util/delay.h ****    \note
 153:/usr/local/Cellar/avr-gcc@9/9.4.0_1/avr/include/util/delay.h **** 
 154:/usr/local/Cellar/avr-gcc@9/9.4.0_1/avr/include/util/delay.h ****    The implementation of _delay_ms() based on
 155:/usr/local/Cellar/avr-gcc@9/9.4.0_1/avr/include/util/delay.h ****    __builtin_avr_delay_cycles() is not backward compatible with older
 156:/usr/local/Cellar/avr-gcc@9/9.4.0_1/avr/include/util/delay.h ****    implementations.  In order to get functionality backward compatible
 157:/usr/local/Cellar/avr-gcc@9/9.4.0_1/avr/include/util/delay.h ****    with previous versions, the macro \c "__DELAY_BACKWARD_COMPATIBLE__"
 158:/usr/local/Cellar/avr-gcc@9/9.4.0_1/avr/include/util/delay.h ****    must be defined before including this header file. Also, the
 159:/usr/local/Cellar/avr-gcc@9/9.4.0_1/avr/include/util/delay.h ****    backward compatible algorithm will be chosen if the code is
 160:/usr/local/Cellar/avr-gcc@9/9.4.0_1/avr/include/util/delay.h ****    compiled in a <em>freestanding environment</em> (GCC option
 161:/usr/local/Cellar/avr-gcc@9/9.4.0_1/avr/include/util/delay.h ****    \c -ffreestanding), as the math functions required for rounding are
 162:/usr/local/Cellar/avr-gcc@9/9.4.0_1/avr/include/util/delay.h ****    not available to the compiler then.
 163:/usr/local/Cellar/avr-gcc@9/9.4.0_1/avr/include/util/delay.h **** 
 164:/usr/local/Cellar/avr-gcc@9/9.4.0_1/avr/include/util/delay.h ****  */
 165:/usr/local/Cellar/avr-gcc@9/9.4.0_1/avr/include/util/delay.h **** void
 166:/usr/local/Cellar/avr-gcc@9/9.4.0_1/avr/include/util/delay.h **** _delay_ms(double __ms)
 105               		.loc 2 166 1 view .LVU25
 106               	.LBB22:
 167:/usr/local/Cellar/avr-gcc@9/9.4.0_1/avr/include/util/delay.h **** {
 168:/usr/local/Cellar/avr-gcc@9/9.4.0_1/avr/include/util/delay.h **** 	double __tmp ;
 107               		.loc 2 168 2 view .LVU26
 169:/usr/local/Cellar/avr-gcc@9/9.4.0_1/avr/include/util/delay.h **** #if __HAS_DELAY_CYCLES && defined(__OPTIMIZE__) && \
 170:/usr/local/Cellar/avr-gcc@9/9.4.0_1/avr/include/util/delay.h ****   !defined(__DELAY_BACKWARD_COMPATIBLE__) &&	   \
 171:/usr/local/Cellar/avr-gcc@9/9.4.0_1/avr/include/util/delay.h ****   __STDC_HOSTED__
 172:/usr/local/Cellar/avr-gcc@9/9.4.0_1/avr/include/util/delay.h **** 	uint32_t __ticks_dc;
 108               		.loc 2 172 2 view .LVU27
 173:/usr/local/Cellar/avr-gcc@9/9.4.0_1/avr/include/util/delay.h **** 	extern void __builtin_avr_delay_cycles(unsigned long);
 109               		.loc 2 173 2 view .LVU28
 174:/usr/local/Cellar/avr-gcc@9/9.4.0_1/avr/include/util/delay.h **** 	__tmp = ((F_CPU) / 1e3) * __ms;
 110               		.loc 2 174 2 view .LVU29
 175:/usr/local/Cellar/avr-gcc@9/9.4.0_1/avr/include/util/delay.h **** 
 176:/usr/local/Cellar/avr-gcc@9/9.4.0_1/avr/include/util/delay.h **** 	#if defined(__DELAY_ROUND_DOWN__)
 177:/usr/local/Cellar/avr-gcc@9/9.4.0_1/avr/include/util/delay.h **** 		__ticks_dc = (uint32_t)fabs(__tmp);
 178:/usr/local/Cellar/avr-gcc@9/9.4.0_1/avr/include/util/delay.h **** 
 179:/usr/local/Cellar/avr-gcc@9/9.4.0_1/avr/include/util/delay.h **** 	#elif defined(__DELAY_ROUND_CLOSEST__)
 180:/usr/local/Cellar/avr-gcc@9/9.4.0_1/avr/include/util/delay.h **** 		__ticks_dc = (uint32_t)(fabs(__tmp)+0.5);
 181:/usr/local/Cellar/avr-gcc@9/9.4.0_1/avr/include/util/delay.h **** 
GAS LISTING /var/folders/sh/lj4855x88xqgpw006s7bny180000gn/T//ccZ3NiRc.s 			page 7


 182:/usr/local/Cellar/avr-gcc@9/9.4.0_1/avr/include/util/delay.h **** 	#else
 183:/usr/local/Cellar/avr-gcc@9/9.4.0_1/avr/include/util/delay.h **** 		//round up by default
 184:/usr/local/Cellar/avr-gcc@9/9.4.0_1/avr/include/util/delay.h **** 		__ticks_dc = (uint32_t)(ceil(fabs(__tmp)));
 111               		.loc 2 184 3 view .LVU30
 112               		.loc 2 184 3 is_stmt 0 view .LVU31
 113               	.LBE22:
 114               	.LBE21:
 115               		.file 3 "/usr/local/Cellar/avr-gcc@9/9.4.0_1/avr/include/math.h"
   1:/usr/local/Cellar/avr-gcc@9/9.4.0_1/avr/include/math.h **** /* Copyright (c) 2002,2007-2009 Michael Stumpf
   2:/usr/local/Cellar/avr-gcc@9/9.4.0_1/avr/include/math.h **** 
   3:/usr/local/Cellar/avr-gcc@9/9.4.0_1/avr/include/math.h ****    Portions of documentation Copyright (c) 1990 - 1994
   4:/usr/local/Cellar/avr-gcc@9/9.4.0_1/avr/include/math.h ****    The Regents of the University of California.
   5:/usr/local/Cellar/avr-gcc@9/9.4.0_1/avr/include/math.h **** 
   6:/usr/local/Cellar/avr-gcc@9/9.4.0_1/avr/include/math.h ****    All rights reserved.
   7:/usr/local/Cellar/avr-gcc@9/9.4.0_1/avr/include/math.h **** 
   8:/usr/local/Cellar/avr-gcc@9/9.4.0_1/avr/include/math.h ****    Redistribution and use in source and binary forms, with or without
   9:/usr/local/Cellar/avr-gcc@9/9.4.0_1/avr/include/math.h ****    modification, are permitted provided that the following conditions are met:
  10:/usr/local/Cellar/avr-gcc@9/9.4.0_1/avr/include/math.h **** 
  11:/usr/local/Cellar/avr-gcc@9/9.4.0_1/avr/include/math.h ****    * Redistributions of source code must retain the above copyright
  12:/usr/local/Cellar/avr-gcc@9/9.4.0_1/avr/include/math.h ****      notice, this list of conditions and the following disclaimer.
  13:/usr/local/Cellar/avr-gcc@9/9.4.0_1/avr/include/math.h **** 
  14:/usr/local/Cellar/avr-gcc@9/9.4.0_1/avr/include/math.h ****    * Redistributions in binary form must reproduce the above copyright
  15:/usr/local/Cellar/avr-gcc@9/9.4.0_1/avr/include/math.h ****      notice, this list of conditions and the following disclaimer in
  16:/usr/local/Cellar/avr-gcc@9/9.4.0_1/avr/include/math.h ****      the documentation and/or other materials provided with the
  17:/usr/local/Cellar/avr-gcc@9/9.4.0_1/avr/include/math.h ****      distribution.
  18:/usr/local/Cellar/avr-gcc@9/9.4.0_1/avr/include/math.h **** 
  19:/usr/local/Cellar/avr-gcc@9/9.4.0_1/avr/include/math.h ****    * Neither the name of the copyright holders nor the names of
  20:/usr/local/Cellar/avr-gcc@9/9.4.0_1/avr/include/math.h ****      contributors may be used to endorse or promote products derived
  21:/usr/local/Cellar/avr-gcc@9/9.4.0_1/avr/include/math.h ****      from this software without specific prior written permission.
  22:/usr/local/Cellar/avr-gcc@9/9.4.0_1/avr/include/math.h **** 
  23:/usr/local/Cellar/avr-gcc@9/9.4.0_1/avr/include/math.h ****   THIS SOFTWARE IS PROVIDED BY THE COPYRIGHT HOLDERS AND CONTRIBUTORS "AS IS"
  24:/usr/local/Cellar/avr-gcc@9/9.4.0_1/avr/include/math.h ****   AND ANY EXPRESS OR IMPLIED WARRANTIES, INCLUDING, BUT NOT LIMITED TO, THE
  25:/usr/local/Cellar/avr-gcc@9/9.4.0_1/avr/include/math.h ****   IMPLIED WARRANTIES OF MERCHANTABILITY AND FITNESS FOR A PARTICULAR PURPOSE
  26:/usr/local/Cellar/avr-gcc@9/9.4.0_1/avr/include/math.h ****   ARE DISCLAIMED. IN NO EVENT SHALL THE COPYRIGHT OWNER OR CONTRIBUTORS BE
  27:/usr/local/Cellar/avr-gcc@9/9.4.0_1/avr/include/math.h ****   LIABLE FOR ANY DIRECT, INDIRECT, INCIDENTAL, SPECIAL, EXEMPLARY, OR
  28:/usr/local/Cellar/avr-gcc@9/9.4.0_1/avr/include/math.h ****   CONSEQUENTIAL DAMAGES (INCLUDING, BUT NOT LIMITED TO, PROCUREMENT OF
  29:/usr/local/Cellar/avr-gcc@9/9.4.0_1/avr/include/math.h ****   SUBSTITUTE GOODS OR SERVICES; LOSS OF USE, DATA, OR PROFITS; OR BUSINESS
  30:/usr/local/Cellar/avr-gcc@9/9.4.0_1/avr/include/math.h ****   INTERRUPTION) HOWEVER CAUSED AND ON ANY THEORY OF LIABILITY, WHETHER IN
  31:/usr/local/Cellar/avr-gcc@9/9.4.0_1/avr/include/math.h ****   CONTRACT, STRICT LIABILITY, OR TORT (INCLUDING NEGLIGENCE OR OTHERWISE)
  32:/usr/local/Cellar/avr-gcc@9/9.4.0_1/avr/include/math.h ****   ARISING IN ANY WAY OUT OF THE USE OF THIS SOFTWARE, EVEN IF ADVISED OF THE
  33:/usr/local/Cellar/avr-gcc@9/9.4.0_1/avr/include/math.h ****   POSSIBILITY OF SUCH DAMAGE. */
  34:/usr/local/Cellar/avr-gcc@9/9.4.0_1/avr/include/math.h **** 
  35:/usr/local/Cellar/avr-gcc@9/9.4.0_1/avr/include/math.h **** /* $Id: math.h 2554 2021-05-20 22:22:24Z joerg_wunsch $ */
  36:/usr/local/Cellar/avr-gcc@9/9.4.0_1/avr/include/math.h **** 
  37:/usr/local/Cellar/avr-gcc@9/9.4.0_1/avr/include/math.h **** /*
  38:/usr/local/Cellar/avr-gcc@9/9.4.0_1/avr/include/math.h ****    math.h - mathematical functions
  39:/usr/local/Cellar/avr-gcc@9/9.4.0_1/avr/include/math.h **** 
  40:/usr/local/Cellar/avr-gcc@9/9.4.0_1/avr/include/math.h ****    Author : Michael Stumpf
  41:/usr/local/Cellar/avr-gcc@9/9.4.0_1/avr/include/math.h ****             Michael.Stumpf@t-online.de
  42:/usr/local/Cellar/avr-gcc@9/9.4.0_1/avr/include/math.h **** 
  43:/usr/local/Cellar/avr-gcc@9/9.4.0_1/avr/include/math.h ****    __ATTR_CONST__ added by marekm@linux.org.pl for functions
  44:/usr/local/Cellar/avr-gcc@9/9.4.0_1/avr/include/math.h ****    that "do not examine any values except their arguments, and have
  45:/usr/local/Cellar/avr-gcc@9/9.4.0_1/avr/include/math.h ****    no effects except the return value", for better optimization by gcc.
  46:/usr/local/Cellar/avr-gcc@9/9.4.0_1/avr/include/math.h ****  */
  47:/usr/local/Cellar/avr-gcc@9/9.4.0_1/avr/include/math.h **** 
  48:/usr/local/Cellar/avr-gcc@9/9.4.0_1/avr/include/math.h **** #ifndef __MATH_H
  49:/usr/local/Cellar/avr-gcc@9/9.4.0_1/avr/include/math.h **** #define __MATH_H
GAS LISTING /var/folders/sh/lj4855x88xqgpw006s7bny180000gn/T//ccZ3NiRc.s 			page 8


  50:/usr/local/Cellar/avr-gcc@9/9.4.0_1/avr/include/math.h **** 
  51:/usr/local/Cellar/avr-gcc@9/9.4.0_1/avr/include/math.h **** /** \file */
  52:/usr/local/Cellar/avr-gcc@9/9.4.0_1/avr/include/math.h **** /** \defgroup avr_math <math.h>: Mathematics
  53:/usr/local/Cellar/avr-gcc@9/9.4.0_1/avr/include/math.h ****     \code #include <math.h> \endcode
  54:/usr/local/Cellar/avr-gcc@9/9.4.0_1/avr/include/math.h **** 
  55:/usr/local/Cellar/avr-gcc@9/9.4.0_1/avr/include/math.h ****     This header file declares basic mathematics constants and
  56:/usr/local/Cellar/avr-gcc@9/9.4.0_1/avr/include/math.h ****     functions.
  57:/usr/local/Cellar/avr-gcc@9/9.4.0_1/avr/include/math.h **** 
  58:/usr/local/Cellar/avr-gcc@9/9.4.0_1/avr/include/math.h ****     \par Notes:
  59:/usr/local/Cellar/avr-gcc@9/9.4.0_1/avr/include/math.h ****     - In order to access the functions declared herein, it is usually
  60:/usr/local/Cellar/avr-gcc@9/9.4.0_1/avr/include/math.h ****       also required to additionally link against the library \c libm.a.
  61:/usr/local/Cellar/avr-gcc@9/9.4.0_1/avr/include/math.h ****       See also the related \ref faq_libm "FAQ entry".
  62:/usr/local/Cellar/avr-gcc@9/9.4.0_1/avr/include/math.h ****     - Math functions do not raise exceptions and do not change the
  63:/usr/local/Cellar/avr-gcc@9/9.4.0_1/avr/include/math.h ****       \c errno variable. Therefore the majority of them are declared
  64:/usr/local/Cellar/avr-gcc@9/9.4.0_1/avr/include/math.h ****       with const attribute, for better optimization by GCC.	*/
  65:/usr/local/Cellar/avr-gcc@9/9.4.0_1/avr/include/math.h **** 
  66:/usr/local/Cellar/avr-gcc@9/9.4.0_1/avr/include/math.h **** 
  67:/usr/local/Cellar/avr-gcc@9/9.4.0_1/avr/include/math.h **** /** \ingroup avr_math	*/
  68:/usr/local/Cellar/avr-gcc@9/9.4.0_1/avr/include/math.h **** /*@{*/
  69:/usr/local/Cellar/avr-gcc@9/9.4.0_1/avr/include/math.h **** 
  70:/usr/local/Cellar/avr-gcc@9/9.4.0_1/avr/include/math.h **** /** The constant \a e.	*/
  71:/usr/local/Cellar/avr-gcc@9/9.4.0_1/avr/include/math.h **** #define M_E		2.7182818284590452354
  72:/usr/local/Cellar/avr-gcc@9/9.4.0_1/avr/include/math.h **** 
  73:/usr/local/Cellar/avr-gcc@9/9.4.0_1/avr/include/math.h **** /** The logarithm of the \a e to base 2. */
  74:/usr/local/Cellar/avr-gcc@9/9.4.0_1/avr/include/math.h **** #define M_LOG2E		1.4426950408889634074	/* log_2 e */
  75:/usr/local/Cellar/avr-gcc@9/9.4.0_1/avr/include/math.h **** 
  76:/usr/local/Cellar/avr-gcc@9/9.4.0_1/avr/include/math.h **** /** The logarithm of the \a e to base 10. */
  77:/usr/local/Cellar/avr-gcc@9/9.4.0_1/avr/include/math.h **** #define M_LOG10E	0.43429448190325182765	/* log_10 e */
  78:/usr/local/Cellar/avr-gcc@9/9.4.0_1/avr/include/math.h **** 
  79:/usr/local/Cellar/avr-gcc@9/9.4.0_1/avr/include/math.h **** /** The natural logarithm of the 2.	*/
  80:/usr/local/Cellar/avr-gcc@9/9.4.0_1/avr/include/math.h **** #define M_LN2		0.69314718055994530942	/* log_e 2 */
  81:/usr/local/Cellar/avr-gcc@9/9.4.0_1/avr/include/math.h **** 
  82:/usr/local/Cellar/avr-gcc@9/9.4.0_1/avr/include/math.h **** /** The natural logarithm of the 10.	*/
  83:/usr/local/Cellar/avr-gcc@9/9.4.0_1/avr/include/math.h **** #define M_LN10		2.30258509299404568402	/* log_e 10 */
  84:/usr/local/Cellar/avr-gcc@9/9.4.0_1/avr/include/math.h **** 
  85:/usr/local/Cellar/avr-gcc@9/9.4.0_1/avr/include/math.h **** /** The constant \a pi.	*/
  86:/usr/local/Cellar/avr-gcc@9/9.4.0_1/avr/include/math.h **** #define M_PI		3.14159265358979323846	/* pi */
  87:/usr/local/Cellar/avr-gcc@9/9.4.0_1/avr/include/math.h **** 
  88:/usr/local/Cellar/avr-gcc@9/9.4.0_1/avr/include/math.h **** /** The constant \a pi/2.	*/
  89:/usr/local/Cellar/avr-gcc@9/9.4.0_1/avr/include/math.h **** #define M_PI_2		1.57079632679489661923	/* pi/2 */
  90:/usr/local/Cellar/avr-gcc@9/9.4.0_1/avr/include/math.h **** 
  91:/usr/local/Cellar/avr-gcc@9/9.4.0_1/avr/include/math.h **** /** The constant \a pi/4.	*/
  92:/usr/local/Cellar/avr-gcc@9/9.4.0_1/avr/include/math.h **** #define M_PI_4		0.78539816339744830962	/* pi/4 */
  93:/usr/local/Cellar/avr-gcc@9/9.4.0_1/avr/include/math.h **** 
  94:/usr/local/Cellar/avr-gcc@9/9.4.0_1/avr/include/math.h **** /** The constant \a 1/pi.	*/
  95:/usr/local/Cellar/avr-gcc@9/9.4.0_1/avr/include/math.h **** #define M_1_PI		0.31830988618379067154	/* 1/pi */
  96:/usr/local/Cellar/avr-gcc@9/9.4.0_1/avr/include/math.h **** 
  97:/usr/local/Cellar/avr-gcc@9/9.4.0_1/avr/include/math.h **** /** The constant \a 2/pi.	*/
  98:/usr/local/Cellar/avr-gcc@9/9.4.0_1/avr/include/math.h **** #define M_2_PI		0.63661977236758134308	/* 2/pi */
  99:/usr/local/Cellar/avr-gcc@9/9.4.0_1/avr/include/math.h **** 
 100:/usr/local/Cellar/avr-gcc@9/9.4.0_1/avr/include/math.h **** /** The constant \a 2/sqrt(pi).	*/
 101:/usr/local/Cellar/avr-gcc@9/9.4.0_1/avr/include/math.h **** #define M_2_SQRTPI	1.12837916709551257390	/* 2/sqrt(pi) */
 102:/usr/local/Cellar/avr-gcc@9/9.4.0_1/avr/include/math.h **** 
 103:/usr/local/Cellar/avr-gcc@9/9.4.0_1/avr/include/math.h **** /** The square root of 2.	*/
 104:/usr/local/Cellar/avr-gcc@9/9.4.0_1/avr/include/math.h **** #define M_SQRT2		1.41421356237309504880	/* sqrt(2) */
 105:/usr/local/Cellar/avr-gcc@9/9.4.0_1/avr/include/math.h **** 
 106:/usr/local/Cellar/avr-gcc@9/9.4.0_1/avr/include/math.h **** /** The constant \a 1/sqrt(2).	*/
GAS LISTING /var/folders/sh/lj4855x88xqgpw006s7bny180000gn/T//ccZ3NiRc.s 			page 9


 107:/usr/local/Cellar/avr-gcc@9/9.4.0_1/avr/include/math.h **** #define M_SQRT1_2	0.70710678118654752440	/* 1/sqrt(2) */
 108:/usr/local/Cellar/avr-gcc@9/9.4.0_1/avr/include/math.h **** 
 109:/usr/local/Cellar/avr-gcc@9/9.4.0_1/avr/include/math.h **** /** NAN constant.	*/
 110:/usr/local/Cellar/avr-gcc@9/9.4.0_1/avr/include/math.h **** #define NAN	__builtin_nan("")
 111:/usr/local/Cellar/avr-gcc@9/9.4.0_1/avr/include/math.h **** 
 112:/usr/local/Cellar/avr-gcc@9/9.4.0_1/avr/include/math.h **** /** INFINITY constant.	*/
 113:/usr/local/Cellar/avr-gcc@9/9.4.0_1/avr/include/math.h **** #define INFINITY	__builtin_inf()
 114:/usr/local/Cellar/avr-gcc@9/9.4.0_1/avr/include/math.h **** 
 115:/usr/local/Cellar/avr-gcc@9/9.4.0_1/avr/include/math.h **** 
 116:/usr/local/Cellar/avr-gcc@9/9.4.0_1/avr/include/math.h **** #ifndef __ATTR_CONST__
 117:/usr/local/Cellar/avr-gcc@9/9.4.0_1/avr/include/math.h **** # define __ATTR_CONST__ __attribute__((__const__))
 118:/usr/local/Cellar/avr-gcc@9/9.4.0_1/avr/include/math.h **** #endif
 119:/usr/local/Cellar/avr-gcc@9/9.4.0_1/avr/include/math.h **** 
 120:/usr/local/Cellar/avr-gcc@9/9.4.0_1/avr/include/math.h **** #if __SIZEOF_DOUBLE__ == __SIZEOF_FLOAT__
 121:/usr/local/Cellar/avr-gcc@9/9.4.0_1/avr/include/math.h **** /* In order to provide aliases for double functions in the case where
 122:/usr/local/Cellar/avr-gcc@9/9.4.0_1/avr/include/math.h ****    double = float, use declarations with according assembler name.
 123:/usr/local/Cellar/avr-gcc@9/9.4.0_1/avr/include/math.h ****    That way:
 124:/usr/local/Cellar/avr-gcc@9/9.4.0_1/avr/include/math.h ****    1) We do *NOT* use macros like
 125:/usr/local/Cellar/avr-gcc@9/9.4.0_1/avr/include/math.h ****          #define sin sinf
 126:/usr/local/Cellar/avr-gcc@9/9.4.0_1/avr/include/math.h ****       because that would interfere with C++.  For example, if some class
 127:/usr/local/Cellar/avr-gcc@9/9.4.0_1/avr/include/math.h ****       would implement a method 'sin', or if there was polymorthism for
 128:/usr/local/Cellar/avr-gcc@9/9.4.0_1/avr/include/math.h ****       a function 'sin', then we would silently rename these to 'sinf'.
 129:/usr/local/Cellar/avr-gcc@9/9.4.0_1/avr/include/math.h ****    2) We have proper prototypes, both for 'sin' and for 'sinf'.
 130:/usr/local/Cellar/avr-gcc@9/9.4.0_1/avr/include/math.h ****    3) It is zero-overhead.  */
 131:/usr/local/Cellar/avr-gcc@9/9.4.0_1/avr/include/math.h **** #define __ASM_ALIAS(x) __asm(#x)
 132:/usr/local/Cellar/avr-gcc@9/9.4.0_1/avr/include/math.h **** #else
 133:/usr/local/Cellar/avr-gcc@9/9.4.0_1/avr/include/math.h **** /* double != float: Provide double prototypes. */
 134:/usr/local/Cellar/avr-gcc@9/9.4.0_1/avr/include/math.h **** #define __ASM_ALIAS(x) /* empty */
 135:/usr/local/Cellar/avr-gcc@9/9.4.0_1/avr/include/math.h **** #endif
 136:/usr/local/Cellar/avr-gcc@9/9.4.0_1/avr/include/math.h **** 
 137:/usr/local/Cellar/avr-gcc@9/9.4.0_1/avr/include/math.h **** #ifdef __cplusplus
 138:/usr/local/Cellar/avr-gcc@9/9.4.0_1/avr/include/math.h **** extern "C" {
 139:/usr/local/Cellar/avr-gcc@9/9.4.0_1/avr/include/math.h **** #endif
 140:/usr/local/Cellar/avr-gcc@9/9.4.0_1/avr/include/math.h **** 
 141:/usr/local/Cellar/avr-gcc@9/9.4.0_1/avr/include/math.h **** /**
 142:/usr/local/Cellar/avr-gcc@9/9.4.0_1/avr/include/math.h ****     The cosf() function returns the cosine of \a __x, measured in radians.
 143:/usr/local/Cellar/avr-gcc@9/9.4.0_1/avr/include/math.h ****  */
 144:/usr/local/Cellar/avr-gcc@9/9.4.0_1/avr/include/math.h **** __ATTR_CONST__ extern float cosf (float __x);
 145:/usr/local/Cellar/avr-gcc@9/9.4.0_1/avr/include/math.h **** __ATTR_CONST__ extern double cos (double __x) __ASM_ALIAS(cosf);		/**< The alias for cosf().	*/
 146:/usr/local/Cellar/avr-gcc@9/9.4.0_1/avr/include/math.h **** 
 147:/usr/local/Cellar/avr-gcc@9/9.4.0_1/avr/include/math.h **** /**
 148:/usr/local/Cellar/avr-gcc@9/9.4.0_1/avr/include/math.h ****     The sinf() function returns the sine of \a __x, measured in radians.
 149:/usr/local/Cellar/avr-gcc@9/9.4.0_1/avr/include/math.h ****  */
 150:/usr/local/Cellar/avr-gcc@9/9.4.0_1/avr/include/math.h **** __ATTR_CONST__ extern float sinf (float __x);
 151:/usr/local/Cellar/avr-gcc@9/9.4.0_1/avr/include/math.h **** __ATTR_CONST__ extern double sin (double __x) __ASM_ALIAS(sinf);		/**< The alias for sinf().	*/
 152:/usr/local/Cellar/avr-gcc@9/9.4.0_1/avr/include/math.h **** 
 153:/usr/local/Cellar/avr-gcc@9/9.4.0_1/avr/include/math.h **** /**
 154:/usr/local/Cellar/avr-gcc@9/9.4.0_1/avr/include/math.h ****     The tanf() function returns the tangent of \a __x, measured in radians.
 155:/usr/local/Cellar/avr-gcc@9/9.4.0_1/avr/include/math.h ****  */
 156:/usr/local/Cellar/avr-gcc@9/9.4.0_1/avr/include/math.h **** __ATTR_CONST__ extern float tanf (float __x);
 157:/usr/local/Cellar/avr-gcc@9/9.4.0_1/avr/include/math.h **** __ATTR_CONST__ extern double tan (double __x) __ASM_ALIAS(tanf);		/**< The alias for tanf().	*/
 158:/usr/local/Cellar/avr-gcc@9/9.4.0_1/avr/include/math.h **** 
 159:/usr/local/Cellar/avr-gcc@9/9.4.0_1/avr/include/math.h **** /**
 160:/usr/local/Cellar/avr-gcc@9/9.4.0_1/avr/include/math.h ****     The fabsf() function computes the absolute value of a floating-point
 161:/usr/local/Cellar/avr-gcc@9/9.4.0_1/avr/include/math.h ****     number \a __x.
 162:/usr/local/Cellar/avr-gcc@9/9.4.0_1/avr/include/math.h ****  */
 163:/usr/local/Cellar/avr-gcc@9/9.4.0_1/avr/include/math.h **** static inline float fabsf (float __x)
GAS LISTING /var/folders/sh/lj4855x88xqgpw006s7bny180000gn/T//ccZ3NiRc.s 			page 10


 164:/usr/local/Cellar/avr-gcc@9/9.4.0_1/avr/include/math.h **** {
 165:/usr/local/Cellar/avr-gcc@9/9.4.0_1/avr/include/math.h ****     return __builtin_fabsf (__x);
 166:/usr/local/Cellar/avr-gcc@9/9.4.0_1/avr/include/math.h **** }
 167:/usr/local/Cellar/avr-gcc@9/9.4.0_1/avr/include/math.h **** 
 168:/usr/local/Cellar/avr-gcc@9/9.4.0_1/avr/include/math.h **** static inline double fabs (double __x)
 169:/usr/local/Cellar/avr-gcc@9/9.4.0_1/avr/include/math.h **** {
 170:/usr/local/Cellar/avr-gcc@9/9.4.0_1/avr/include/math.h ****     return __builtin_fabs (__x);
 116               		.loc 3 170 5 is_stmt 1 view .LVU32
 117               	.LBB24:
 118               	.LBB23:
 185:/usr/local/Cellar/avr-gcc@9/9.4.0_1/avr/include/util/delay.h **** 	#endif
 186:/usr/local/Cellar/avr-gcc@9/9.4.0_1/avr/include/util/delay.h **** 
 187:/usr/local/Cellar/avr-gcc@9/9.4.0_1/avr/include/util/delay.h **** 	__builtin_avr_delay_cycles(__ticks_dc);
 119               		.loc 2 187 2 view .LVU33
 120 000a 89EF      		ldi r24,lo8(249)
 121 000c 90E0      		ldi r25,hi8(249)
 122 000e 0197      	1:	sbiw r24,1
 123 0010 01F4      		brne 1b
 124 0012 00C0      		rjmp .
 125 0014 0000      		nop
 188:/usr/local/Cellar/avr-gcc@9/9.4.0_1/avr/include/util/delay.h **** 
 189:/usr/local/Cellar/avr-gcc@9/9.4.0_1/avr/include/util/delay.h **** #else
 190:/usr/local/Cellar/avr-gcc@9/9.4.0_1/avr/include/util/delay.h **** 	uint16_t __ticks;
 191:/usr/local/Cellar/avr-gcc@9/9.4.0_1/avr/include/util/delay.h **** 	__tmp = ((F_CPU) / 4e3) * __ms;
 192:/usr/local/Cellar/avr-gcc@9/9.4.0_1/avr/include/util/delay.h **** 	if (__tmp < 1.0)
 193:/usr/local/Cellar/avr-gcc@9/9.4.0_1/avr/include/util/delay.h **** 		__ticks = 1;
 194:/usr/local/Cellar/avr-gcc@9/9.4.0_1/avr/include/util/delay.h **** 	else if (__tmp > 65535)
 195:/usr/local/Cellar/avr-gcc@9/9.4.0_1/avr/include/util/delay.h **** 	{
 196:/usr/local/Cellar/avr-gcc@9/9.4.0_1/avr/include/util/delay.h **** 		//	__ticks = requested delay in 1/10 ms
 197:/usr/local/Cellar/avr-gcc@9/9.4.0_1/avr/include/util/delay.h **** 		__ticks = (uint16_t) (__ms * 10.0);
 198:/usr/local/Cellar/avr-gcc@9/9.4.0_1/avr/include/util/delay.h **** 		while(__ticks)
 199:/usr/local/Cellar/avr-gcc@9/9.4.0_1/avr/include/util/delay.h **** 		{
 200:/usr/local/Cellar/avr-gcc@9/9.4.0_1/avr/include/util/delay.h **** 			// wait 1/10 ms
 201:/usr/local/Cellar/avr-gcc@9/9.4.0_1/avr/include/util/delay.h **** 			_delay_loop_2(((F_CPU) / 4e3) / 10);
 202:/usr/local/Cellar/avr-gcc@9/9.4.0_1/avr/include/util/delay.h **** 			__ticks --;
 203:/usr/local/Cellar/avr-gcc@9/9.4.0_1/avr/include/util/delay.h **** 		}
 204:/usr/local/Cellar/avr-gcc@9/9.4.0_1/avr/include/util/delay.h **** 		return;
 205:/usr/local/Cellar/avr-gcc@9/9.4.0_1/avr/include/util/delay.h **** 	}
 206:/usr/local/Cellar/avr-gcc@9/9.4.0_1/avr/include/util/delay.h **** 	else
 207:/usr/local/Cellar/avr-gcc@9/9.4.0_1/avr/include/util/delay.h **** 		__ticks = (uint16_t)__tmp;
 208:/usr/local/Cellar/avr-gcc@9/9.4.0_1/avr/include/util/delay.h **** 	_delay_loop_2(__ticks);
 209:/usr/local/Cellar/avr-gcc@9/9.4.0_1/avr/include/util/delay.h **** #endif
 210:/usr/local/Cellar/avr-gcc@9/9.4.0_1/avr/include/util/delay.h **** }
 126               		.loc 2 210 1 is_stmt 0 view .LVU34
 127 0016 00C0      		rjmp .L4
 128               	.LBE23:
 129               	.LBE24:
 130               		.cfi_endproc
 131               	.LFE17:
 132               		.size	custom_delay_ms, .-custom_delay_ms
 133               		.section	.text.gentle_flicker,"ax",@progbits
 134               	.global	gentle_flicker
 135               		.type	gentle_flicker, @function
 136               	gentle_flicker:
 137               	.LVL5:
 138               	.LFB18:
  51:halloween_candle.c **** 
GAS LISTING /var/folders/sh/lj4855x88xqgpw006s7bny180000gn/T//ccZ3NiRc.s 			page 11


  52:halloween_candle.c **** void gentle_flicker(uint16_t duration) {
 139               		.loc 1 52 40 is_stmt 1 view -0
 140               		.cfi_startproc
 141               		.loc 1 52 40 is_stmt 0 view .LVU36
 142 0000 6F92      		push r6
 143               		.cfi_def_cfa_offset 3
 144               		.cfi_offset 6, -2
 145 0002 7F92      		push r7
 146               		.cfi_def_cfa_offset 4
 147               		.cfi_offset 7, -3
 148 0004 8F92      		push r8
 149               		.cfi_def_cfa_offset 5
 150               		.cfi_offset 8, -4
 151 0006 9F92      		push r9
 152               		.cfi_def_cfa_offset 6
 153               		.cfi_offset 9, -5
 154 0008 AF92      		push r10
 155               		.cfi_def_cfa_offset 7
 156               		.cfi_offset 10, -6
 157 000a BF92      		push r11
 158               		.cfi_def_cfa_offset 8
 159               		.cfi_offset 11, -7
 160 000c CF92      		push r12
 161               		.cfi_def_cfa_offset 9
 162               		.cfi_offset 12, -8
 163 000e DF92      		push r13
 164               		.cfi_def_cfa_offset 10
 165               		.cfi_offset 13, -9
 166 0010 EF92      		push r14
 167               		.cfi_def_cfa_offset 11
 168               		.cfi_offset 14, -10
 169 0012 FF92      		push r15
 170               		.cfi_def_cfa_offset 12
 171               		.cfi_offset 15, -11
 172 0014 0F93      		push r16
 173               		.cfi_def_cfa_offset 13
 174               		.cfi_offset 16, -12
 175 0016 1F93      		push r17
 176               		.cfi_def_cfa_offset 14
 177               		.cfi_offset 17, -13
 178 0018 CF93      		push r28
 179               		.cfi_def_cfa_offset 15
 180               		.cfi_offset 28, -14
 181 001a DF93      		push r29
 182               		.cfi_def_cfa_offset 16
 183               		.cfi_offset 29, -15
 184               	/* prologue: function */
 185               	/* frame size = 0 */
 186               	/* stack size = 14 */
 187               	.L__stack_usage = 14
 188 001c 3C01      		movw r6,r24
  53:halloween_candle.c ****     uint8_t base_intensity = 128;
 189               		.loc 1 53 5 is_stmt 1 view .LVU37
 190               	.LVL6:
  54:halloween_candle.c ****     for (uint16_t i = 0; i < duration; i++) {
 191               		.loc 1 54 5 view .LVU38
 192               	.LBB25:
GAS LISTING /var/folders/sh/lj4855x88xqgpw006s7bny180000gn/T//ccZ3NiRc.s 			page 12


 193               		.loc 1 54 10 view .LVU39
 194               		.loc 1 54 19 is_stmt 0 view .LVU40
 195 001e D0E0      		ldi r29,0
 196 0020 C0E0      		ldi r28,0
 197               	.LBB26:
  55:halloween_candle.c ****         int16_t variation;
  56:halloween_candle.c ****         
  57:halloween_candle.c ****         if (rand() % 100 < 10) {  // 10% chance of a larger flicker
 198               		.loc 1 57 20 view .LVU41
 199 0022 54E6      		ldi r21,lo8(100)
 200 0024 852E      		mov r8,r21
 201 0026 912C      		mov r9,__zero_reg__
  58:halloween_candle.c ****             variation = (rand() % 61) - 30;  // -30 to +30
  59:halloween_candle.c ****         } else {
  60:halloween_candle.c ****             variation = (rand() % 31) - 15;  // -15 to +15
 202               		.loc 1 60 33 view .LVU42
 203 0028 0FE1      		ldi r16,lo8(31)
 204 002a 10E0      		ldi r17,0
  58:halloween_candle.c ****             variation = (rand() % 61) - 30;  // -30 to +30
 205               		.loc 1 58 33 view .LVU43
 206 002c 6DE3      		ldi r22,lo8(61)
 207 002e E62E      		mov r14,r22
 208 0030 F12C      		mov r15,__zero_reg__
  61:halloween_candle.c ****         }
  62:halloween_candle.c ****         
  63:halloween_candle.c ****         int16_t intensity1 = base_intensity + variation;
  64:halloween_candle.c ****         int16_t intensity2 = base_intensity + (variation * 2 / 3);  // Slightly less variation for 
 209               		.loc 1 64 62 view .LVU44
 210 0032 73E0      		ldi r23,lo8(3)
 211 0034 C72E      		mov r12,r23
 212 0036 D12C      		mov r13,__zero_reg__
  65:halloween_candle.c ****         
  66:halloween_candle.c ****         // Ensure intensities are within valid range
  67:halloween_candle.c ****         intensity1 = (intensity1 < 0) ? 0 : ((intensity1 > 255) ? 255 : intensity1);
  68:halloween_candle.c ****         intensity2 = (intensity2 < 0) ? 0 : ((intensity2 > 255) ? 255 : intensity2);
  69:halloween_candle.c ****         
  70:halloween_candle.c ****         set_led_brightness((uint8_t)intensity1, (uint8_t)intensity2);
  71:halloween_candle.c ****         
  72:halloween_candle.c ****         custom_delay_ms(50 + (rand() % 50));  // Varying delay between 50-99ms
 213               		.loc 1 72 38 view .LVU45
 214 0038 E2E3      		ldi r30,lo8(50)
 215 003a AE2E      		mov r10,r30
 216 003c B12C      		mov r11,__zero_reg__
 217               	.LVL7:
 218               	.L7:
 219               		.loc 1 72 38 view .LVU46
 220               	.LBE26:
  54:halloween_candle.c ****         int16_t variation;
 221               		.loc 1 54 26 is_stmt 1 discriminator 2 view .LVU47
  54:halloween_candle.c ****         int16_t variation;
 222               		.loc 1 54 5 is_stmt 0 discriminator 2 view .LVU48
 223 003e C615      		cp r28,r6
 224 0040 D705      		cpc r29,r7
 225 0042 01F4      		brne .L10
 226               	/* epilogue start */
 227               	.LBE25:
  73:halloween_candle.c ****     }
GAS LISTING /var/folders/sh/lj4855x88xqgpw006s7bny180000gn/T//ccZ3NiRc.s 			page 13


  74:halloween_candle.c **** }
 228               		.loc 1 74 1 view .LVU49
 229 0044 DF91      		pop r29
 230 0046 CF91      		pop r28
 231               	.LVL8:
 232               		.loc 1 74 1 view .LVU50
 233 0048 1F91      		pop r17
 234 004a 0F91      		pop r16
 235 004c FF90      		pop r15
 236 004e EF90      		pop r14
 237 0050 DF90      		pop r13
 238 0052 CF90      		pop r12
 239 0054 BF90      		pop r11
 240 0056 AF90      		pop r10
 241 0058 9F90      		pop r9
 242 005a 8F90      		pop r8
 243 005c 7F90      		pop r7
 244 005e 6F90      		pop r6
 245               	.LVL9:
 246               		.loc 1 74 1 view .LVU51
 247 0060 0895      		ret
 248               	.LVL10:
 249               	.L10:
 250               	.LBB31:
 251               	.LBB29:
  55:halloween_candle.c ****         
 252               		.loc 1 55 9 is_stmt 1 view .LVU52
  57:halloween_candle.c ****             variation = (rand() % 61) - 30;  // -30 to +30
 253               		.loc 1 57 9 view .LVU53
  57:halloween_candle.c ****             variation = (rand() % 61) - 30;  // -30 to +30
 254               		.loc 1 57 13 is_stmt 0 view .LVU54
 255 0062 00D0      		rcall rand
 256               	.LVL11:
  57:halloween_candle.c ****             variation = (rand() % 61) - 30;  // -30 to +30
 257               		.loc 1 57 20 view .LVU55
 258 0064 B401      		movw r22,r8
 259 0066 00D0      		rcall __divmodhi4
  57:halloween_candle.c ****             variation = (rand() % 61) - 30;  // -30 to +30
 260               		.loc 1 57 12 view .LVU56
 261 0068 0A97      		sbiw r24,10
 262 006a 04F4      		brge .L8
  58:halloween_candle.c ****         } else {
 263               		.loc 1 58 13 is_stmt 1 view .LVU57
  58:halloween_candle.c ****         } else {
 264               		.loc 1 58 26 is_stmt 0 view .LVU58
 265 006c 00D0      		rcall rand
 266               	.LVL12:
  58:halloween_candle.c ****         } else {
 267               		.loc 1 58 33 view .LVU59
 268 006e B701      		movw r22,r14
 269 0070 00D0      		rcall __divmodhi4
  58:halloween_candle.c ****         } else {
 270               		.loc 1 58 23 view .LVU60
 271 0072 9C01      		movw r18,r24
 272 0074 2E51      		subi r18,30
 273 0076 3109      		sbc r19,__zero_reg__
 274               	.LVL13:
GAS LISTING /var/folders/sh/lj4855x88xqgpw006s7bny180000gn/T//ccZ3NiRc.s 			page 14


 275               	.L9:
  63:halloween_candle.c ****         int16_t intensity2 = base_intensity + (variation * 2 / 3);  // Slightly less variation for 
 276               		.loc 1 63 9 is_stmt 1 view .LVU61
  64:halloween_candle.c ****         
 277               		.loc 1 64 9 view .LVU62
  67:halloween_candle.c ****         intensity2 = (intensity2 < 0) ? 0 : ((intensity2 > 255) ? 255 : intensity2);
 278               		.loc 1 67 9 view .LVU63
  68:halloween_candle.c ****         
 279               		.loc 1 68 9 view .LVU64
  70:halloween_candle.c ****         
 280               		.loc 1 70 9 view .LVU65
  64:halloween_candle.c ****         
 281               		.loc 1 64 58 is_stmt 0 view .LVU66
 282 0078 C901      		movw r24,r18
 283 007a 880F      		lsl r24
 284 007c 991F      		rol r25
  64:halloween_candle.c ****         
 285               		.loc 1 64 62 view .LVU67
 286 007e B601      		movw r22,r12
 287 0080 00D0      		rcall __divmodhi4
  64:halloween_candle.c ****         
 288               		.loc 1 64 17 view .LVU68
 289 0082 6058      		subi r22,-128
 290 0084 7F4F      		sbci r23,-1
  63:halloween_candle.c ****         int16_t intensity2 = base_intensity + (variation * 2 / 3);  // Slightly less variation for 
 291               		.loc 1 63 17 view .LVU69
 292 0086 2058      		subi r18,-128
 293 0088 3F4F      		sbci r19,-1
 294               	.LVL14:
 295               	.LBB27:
 296               	.LBI27:
  41:halloween_candle.c ****     OCR0A = led1;
 297               		.loc 1 41 6 is_stmt 1 view .LVU70
 298               	.LBB28:
  42:halloween_candle.c ****     OCR1B = led2;
 299               		.loc 1 42 5 view .LVU71
  42:halloween_candle.c ****     OCR1B = led2;
 300               		.loc 1 42 11 is_stmt 0 view .LVU72
 301 008a 29BD      		out 0x29,r18
  43:halloween_candle.c **** }
 302               		.loc 1 43 5 is_stmt 1 view .LVU73
  43:halloween_candle.c **** }
 303               		.loc 1 43 11 is_stmt 0 view .LVU74
 304 008c 6BBD      		out 0x2b,r22
 305               	.LVL15:
  43:halloween_candle.c **** }
 306               		.loc 1 43 11 view .LVU75
 307               	.LBE28:
 308               	.LBE27:
  72:halloween_candle.c ****     }
 309               		.loc 1 72 9 is_stmt 1 view .LVU76
  72:halloween_candle.c ****     }
 310               		.loc 1 72 31 is_stmt 0 view .LVU77
 311 008e 00D0      		rcall rand
 312               	.LVL16:
  72:halloween_candle.c ****     }
 313               		.loc 1 72 38 view .LVU78
GAS LISTING /var/folders/sh/lj4855x88xqgpw006s7bny180000gn/T//ccZ3NiRc.s 			page 15


 314 0090 B501      		movw r22,r10
 315 0092 00D0      		rcall __divmodhi4
  72:halloween_candle.c ****     }
 316               		.loc 1 72 9 view .LVU79
 317 0094 C296      		adiw r24,50
 318 0096 00D0      		rcall custom_delay_ms
 319               	.LVL17:
 320               	.LBE29:
  54:halloween_candle.c ****         int16_t variation;
 321               		.loc 1 54 40 is_stmt 1 view .LVU80
  54:halloween_candle.c ****         int16_t variation;
 322               		.loc 1 54 41 is_stmt 0 view .LVU81
 323 0098 2196      		adiw r28,1
 324               	.LVL18:
  54:halloween_candle.c ****         int16_t variation;
 325               		.loc 1 54 41 view .LVU82
 326 009a 00C0      		rjmp .L7
 327               	.L8:
 328               	.LBB30:
  60:halloween_candle.c ****         }
 329               		.loc 1 60 13 is_stmt 1 view .LVU83
  60:halloween_candle.c ****         }
 330               		.loc 1 60 26 is_stmt 0 view .LVU84
 331 009c 00D0      		rcall rand
 332               	.LVL19:
  60:halloween_candle.c ****         }
 333               		.loc 1 60 33 view .LVU85
 334 009e B801      		movw r22,r16
 335 00a0 00D0      		rcall __divmodhi4
  60:halloween_candle.c ****         }
 336               		.loc 1 60 23 view .LVU86
 337 00a2 9C01      		movw r18,r24
 338 00a4 2F50      		subi r18,15
 339 00a6 3109      		sbc r19,__zero_reg__
 340               	.LVL20:
  60:halloween_candle.c ****         }
 341               		.loc 1 60 23 view .LVU87
 342 00a8 00C0      		rjmp .L9
 343               	.LBE30:
 344               	.LBE31:
 345               		.cfi_endproc
 346               	.LFE18:
 347               		.size	gentle_flicker, .-gentle_flicker
 348               		.section	.text.enhanced_candle,"ax",@progbits
 349               	.global	enhanced_candle
 350               		.type	enhanced_candle, @function
 351               	enhanced_candle:
 352               	.LVL21:
 353               	.LFB19:
  75:halloween_candle.c **** 
  76:halloween_candle.c **** void enhanced_candle(uint16_t duration) {
 354               		.loc 1 76 41 is_stmt 1 view -0
 355               		.cfi_startproc
 356               		.loc 1 76 41 is_stmt 0 view .LVU89
 357 0000 3F92      		push r3
 358               		.cfi_def_cfa_offset 3
 359               		.cfi_offset 3, -2
GAS LISTING /var/folders/sh/lj4855x88xqgpw006s7bny180000gn/T//ccZ3NiRc.s 			page 16


 360 0002 4F92      		push r4
 361               		.cfi_def_cfa_offset 4
 362               		.cfi_offset 4, -3
 363 0004 5F92      		push r5
 364               		.cfi_def_cfa_offset 5
 365               		.cfi_offset 5, -4
 366 0006 6F92      		push r6
 367               		.cfi_def_cfa_offset 6
 368               		.cfi_offset 6, -5
 369 0008 7F92      		push r7
 370               		.cfi_def_cfa_offset 7
 371               		.cfi_offset 7, -6
 372 000a 8F92      		push r8
 373               		.cfi_def_cfa_offset 8
 374               		.cfi_offset 8, -7
 375 000c 9F92      		push r9
 376               		.cfi_def_cfa_offset 9
 377               		.cfi_offset 9, -8
 378 000e AF92      		push r10
 379               		.cfi_def_cfa_offset 10
 380               		.cfi_offset 10, -9
 381 0010 BF92      		push r11
 382               		.cfi_def_cfa_offset 11
 383               		.cfi_offset 11, -10
 384 0012 CF92      		push r12
 385               		.cfi_def_cfa_offset 12
 386               		.cfi_offset 12, -11
 387 0014 DF92      		push r13
 388               		.cfi_def_cfa_offset 13
 389               		.cfi_offset 13, -12
 390 0016 EF92      		push r14
 391               		.cfi_def_cfa_offset 14
 392               		.cfi_offset 14, -13
 393 0018 FF92      		push r15
 394               		.cfi_def_cfa_offset 15
 395               		.cfi_offset 15, -14
 396 001a 0F93      		push r16
 397               		.cfi_def_cfa_offset 16
 398               		.cfi_offset 16, -15
 399 001c 1F93      		push r17
 400               		.cfi_def_cfa_offset 17
 401               		.cfi_offset 17, -16
 402 001e CF93      		push r28
 403               		.cfi_def_cfa_offset 18
 404               		.cfi_offset 28, -17
 405 0020 DF93      		push r29
 406               		.cfi_def_cfa_offset 19
 407               		.cfi_offset 29, -18
 408               	/* prologue: function */
 409               	/* frame size = 0 */
 410               	/* stack size = 17 */
 411               	.L__stack_usage = 17
 412 0022 3C01      		movw r6,r24
  77:halloween_candle.c ****     uint8_t base1 = 120, base2 = 100;  // Slightly different base intensities
 413               		.loc 1 77 5 is_stmt 1 view .LVU90
 414               	.LVL22:
  78:halloween_candle.c ****     uint8_t flicker_strength = 0;
GAS LISTING /var/folders/sh/lj4855x88xqgpw006s7bny180000gn/T//ccZ3NiRc.s 			page 17


 415               		.loc 1 78 5 view .LVU91
  79:halloween_candle.c ****     
  80:halloween_candle.c ****     for (uint16_t i = 0; i < duration; i++) {
 416               		.loc 1 80 5 view .LVU92
 417               	.LBB32:
 418               		.loc 1 80 10 view .LVU93
 419               		.loc 1 80 19 is_stmt 0 view .LVU94
 420 0024 D0E0      		ldi r29,0
 421 0026 C0E0      		ldi r28,0
 422               	.LBE32:
  78:halloween_candle.c ****     uint8_t flicker_strength = 0;
 423               		.loc 1 78 13 view .LVU95
 424 0028 312C      		mov r3,__zero_reg__
 425               	.LBB38:
 426               		.loc 1 80 5 view .LVU96
 427 002a 62E3      		ldi r22,lo8(50)
 428 002c 862E      		mov r8,r22
 429 002e 912C      		mov r9,__zero_reg__
 430               	.LBB33:
  81:halloween_candle.c ****         // Slowly vary the flicker strength
  82:halloween_candle.c ****         if (i % 50 == 0) {
  83:halloween_candle.c ****             flicker_strength = rand() % 20 + 10;  // 10 to 29
 431               		.loc 1 83 39 view .LVU97
 432 0030 04E1      		ldi r16,lo8(20)
 433 0032 10E0      		ldi r17,0
  84:halloween_candle.c ****         }
  85:halloween_candle.c ****         
  86:halloween_candle.c ****         // Generate main flicker
  87:halloween_candle.c ****         int16_t variation = (rand() % (flicker_strength * 2 + 1)) - flicker_strength;
  88:halloween_candle.c ****         
  89:halloween_candle.c ****         // Add occasional larger flickers
  90:halloween_candle.c ****         if (rand() % 100 < 5) {  // 5% chance of a larger flicker
 434               		.loc 1 90 20 view .LVU98
 435 0034 74E6      		ldi r23,lo8(100)
 436 0036 E72E      		mov r14,r23
 437 0038 F12C      		mov r15,__zero_reg__
  91:halloween_candle.c ****             variation += (rand() % 41) - 20;  // -20 to +20 additional variation
 438               		.loc 1 91 34 view .LVU99
 439 003a E9E2      		ldi r30,lo8(41)
 440 003c CE2E      		mov r12,r30
 441 003e D12C      		mov r13,__zero_reg__
  92:halloween_candle.c ****         }
  93:halloween_candle.c ****         
  94:halloween_candle.c ****         // Calculate LED intensities
  95:halloween_candle.c ****         int16_t intensity1 = base1 + variation;
  96:halloween_candle.c ****         int16_t intensity2 = base2 + (variation * 3 / 4);  // Slightly less variation for second LE
  97:halloween_candle.c ****         
  98:halloween_candle.c ****         // Ensure intensities are within valid range
  99:halloween_candle.c ****         intensity1 = (intensity1 < 0) ? 0 : ((intensity1 > 255) ? 255 : intensity1);
 100:halloween_candle.c ****         intensity2 = (intensity2 < 0) ? 0 : ((intensity2 > 255) ? 255 : intensity2);
 101:halloween_candle.c ****         
 102:halloween_candle.c ****         set_led_brightness((uint8_t)intensity1, (uint8_t)intensity2);
 103:halloween_candle.c ****         
 104:halloween_candle.c ****         custom_delay_ms(20 + (rand() % 10));  // Varying delay for more natural effect
 442               		.loc 1 104 38 view .LVU100
 443 0040 FAE0      		ldi r31,lo8(10)
 444 0042 AF2E      		mov r10,r31
GAS LISTING /var/folders/sh/lj4855x88xqgpw006s7bny180000gn/T//ccZ3NiRc.s 			page 18


 445 0044 B12C      		mov r11,__zero_reg__
 446               	.LVL23:
 447               	.L12:
 448               		.loc 1 104 38 view .LVU101
 449               	.LBE33:
  80:halloween_candle.c ****         // Slowly vary the flicker strength
 450               		.loc 1 80 26 is_stmt 1 discriminator 2 view .LVU102
  80:halloween_candle.c ****         // Slowly vary the flicker strength
 451               		.loc 1 80 5 is_stmt 0 discriminator 2 view .LVU103
 452 0046 C615      		cp r28,r6
 453 0048 D705      		cpc r29,r7
 454 004a 01F4      		brne .L20
 455               	/* epilogue start */
 456               	.LBE38:
 105:halloween_candle.c ****     }
 106:halloween_candle.c **** }
 457               		.loc 1 106 1 view .LVU104
 458 004c DF91      		pop r29
 459 004e CF91      		pop r28
 460               	.LVL24:
 461               		.loc 1 106 1 view .LVU105
 462 0050 1F91      		pop r17
 463 0052 0F91      		pop r16
 464 0054 FF90      		pop r15
 465 0056 EF90      		pop r14
 466 0058 DF90      		pop r13
 467 005a CF90      		pop r12
 468 005c BF90      		pop r11
 469 005e AF90      		pop r10
 470 0060 9F90      		pop r9
 471 0062 8F90      		pop r8
 472 0064 7F90      		pop r7
 473 0066 6F90      		pop r6
 474               	.LVL25:
 475               		.loc 1 106 1 view .LVU106
 476 0068 5F90      		pop r5
 477 006a 4F90      		pop r4
 478 006c 3F90      		pop r3
 479               	.LVL26:
 480               		.loc 1 106 1 view .LVU107
 481 006e 0895      		ret
 482               	.LVL27:
 483               	.L20:
 484               	.LBB39:
 485               	.LBB36:
  82:halloween_candle.c ****             flicker_strength = rand() % 20 + 10;  // 10 to 29
 486               		.loc 1 82 9 is_stmt 1 view .LVU108
 487               	.LBE36:
  80:halloween_candle.c ****         // Slowly vary the flicker strength
 488               		.loc 1 80 5 is_stmt 0 view .LVU109
 489 0070 CE01      		movw r24,r28
 490 0072 B401      		movw r22,r8
 491 0074 00D0      		rcall __udivmodhi4
 492               	.LBB37:
  82:halloween_candle.c ****             flicker_strength = rand() % 20 + 10;  // 10 to 29
 493               		.loc 1 82 12 view .LVU110
 494 0076 892B      		or r24,r25
GAS LISTING /var/folders/sh/lj4855x88xqgpw006s7bny180000gn/T//ccZ3NiRc.s 			page 19


 495 0078 01F4      		brne .L13
  83:halloween_candle.c ****         }
 496               		.loc 1 83 13 is_stmt 1 view .LVU111
  83:halloween_candle.c ****         }
 497               		.loc 1 83 32 is_stmt 0 view .LVU112
 498 007a 00D0      		rcall rand
 499               	.LVL28:
  83:halloween_candle.c ****         }
 500               		.loc 1 83 39 view .LVU113
 501 007c B801      		movw r22,r16
 502 007e 00D0      		rcall __divmodhi4
  83:halloween_candle.c ****         }
 503               		.loc 1 83 30 view .LVU114
 504 0080 5AE0      		ldi r21,lo8(10)
 505 0082 352E      		mov r3,r21
 506               	.LVL29:
  83:halloween_candle.c ****         }
 507               		.loc 1 83 30 view .LVU115
 508 0084 380E      		add r3,r24
 509               	.LVL30:
 510               	.L13:
  87:halloween_candle.c ****         
 511               		.loc 1 87 9 is_stmt 1 view .LVU116
  87:halloween_candle.c ****         
 512               		.loc 1 87 30 is_stmt 0 view .LVU117
 513 0086 00D0      		rcall rand
 514               	.LVL31:
  87:halloween_candle.c ****         
 515               		.loc 1 87 57 view .LVU118
 516 0088 232D      		mov r18,r3
 517 008a 30E0      		ldi r19,0
 518 008c B901      		movw r22,r18
 519 008e 660F      		lsl r22
 520 0090 771F      		rol r23
  87:halloween_candle.c ****         
 521               		.loc 1 87 61 view .LVU119
 522 0092 6F5F      		subi r22,-1
 523 0094 7F4F      		sbci r23,-1
  87:halloween_candle.c ****         
 524               		.loc 1 87 37 view .LVU120
 525 0096 00D0      		rcall __divmodhi4
  87:halloween_candle.c ****         
 526               		.loc 1 87 17 view .LVU121
 527 0098 2C01      		movw r4,r24
 528 009a 421A      		sub r4,r18
 529 009c 530A      		sbc r5,r19
 530               	.LVL32:
  90:halloween_candle.c ****             variation += (rand() % 41) - 20;  // -20 to +20 additional variation
 531               		.loc 1 90 9 is_stmt 1 view .LVU122
  90:halloween_candle.c ****             variation += (rand() % 41) - 20;  // -20 to +20 additional variation
 532               		.loc 1 90 13 is_stmt 0 view .LVU123
 533 009e 00D0      		rcall rand
 534               	.LVL33:
  90:halloween_candle.c ****             variation += (rand() % 41) - 20;  // -20 to +20 additional variation
 535               		.loc 1 90 20 view .LVU124
 536 00a0 B701      		movw r22,r14
 537 00a2 00D0      		rcall __divmodhi4
GAS LISTING /var/folders/sh/lj4855x88xqgpw006s7bny180000gn/T//ccZ3NiRc.s 			page 20


  90:halloween_candle.c ****             variation += (rand() % 41) - 20;  // -20 to +20 additional variation
 538               		.loc 1 90 12 view .LVU125
 539 00a4 0597      		sbiw r24,5
 540 00a6 04F4      		brge .L14
  91:halloween_candle.c ****         }
 541               		.loc 1 91 13 is_stmt 1 view .LVU126
  91:halloween_candle.c ****         }
 542               		.loc 1 91 27 is_stmt 0 view .LVU127
 543 00a8 00D0      		rcall rand
 544               	.LVL34:
  91:halloween_candle.c ****         }
 545               		.loc 1 91 34 view .LVU128
 546 00aa B601      		movw r22,r12
 547 00ac 00D0      		rcall __divmodhi4
  91:halloween_candle.c ****         }
 548               		.loc 1 91 40 view .LVU129
 549 00ae 4497      		sbiw r24,20
  91:halloween_candle.c ****         }
 550               		.loc 1 91 23 view .LVU130
 551 00b0 480E      		add r4,r24
 552 00b2 591E      		adc r5,r25
 553               	.LVL35:
 554               	.L14:
  95:halloween_candle.c ****         int16_t intensity2 = base2 + (variation * 3 / 4);  // Slightly less variation for second LE
 555               		.loc 1 95 9 is_stmt 1 view .LVU131
  96:halloween_candle.c ****         
 556               		.loc 1 96 9 view .LVU132
  99:halloween_candle.c ****         intensity2 = (intensity2 < 0) ? 0 : ((intensity2 > 255) ? 255 : intensity2);
 557               		.loc 1 99 9 view .LVU133
 100:halloween_candle.c ****         
 558               		.loc 1 100 9 view .LVU134
 102:halloween_candle.c ****         
 559               		.loc 1 102 9 view .LVU135
  96:halloween_candle.c ****         
 560               		.loc 1 96 49 is_stmt 0 view .LVU136
 561 00b4 C201      		movw r24,r4
 562 00b6 63E0      		ldi r22,lo8(3)
 563 00b8 70E0      		ldi r23,0
 564 00ba 00D0      		rcall __mulhi3
 565               	.LVL36:
  96:halloween_candle.c ****         
 566               		.loc 1 96 49 view .LVU137
 567 00bc 9C01      		movw r18,r24
  96:halloween_candle.c ****         
 568               		.loc 1 96 53 view .LVU138
 569 00be 97FF      		sbrs r25,7
 570 00c0 00C0      		rjmp .L15
  96:halloween_candle.c ****         
 571               		.loc 1 96 53 view .LVU139
 572 00c2 2D5F      		subi r18,-3
 573 00c4 3F4F      		sbci r19,-1
 574               	.L15:
 575 00c6 3595      		asr r19
 576 00c8 2795      		ror r18
 577 00ca 3595      		asr r19
 578 00cc 2795      		ror r18
 579               	.LVL37:
GAS LISTING /var/folders/sh/lj4855x88xqgpw006s7bny180000gn/T//ccZ3NiRc.s 			page 21


  96:halloween_candle.c ****         
 580               		.loc 1 96 17 view .LVU140
 581 00ce 2C59      		subi r18,-100
 582 00d0 3F4F      		sbci r19,-1
 100:halloween_candle.c ****         
 583               		.loc 1 100 43 view .LVU141
 584 00d2 2F3F      		cpi r18,-1
 585 00d4 3105      		cpc r19,__zero_reg__
 586 00d6 01F0      		breq .L16
 587 00d8 04F0      		brlt .L16
 588 00da 2FEF      		ldi r18,lo8(-1)
 589 00dc 30E0      		ldi r19,0
 590               	.L16:
 102:halloween_candle.c ****         
 591               		.loc 1 102 9 view .LVU142
 592 00de 37FD      		sbrc r19,7
 593 00e0 20E0      		ldi r18,0
 594               	.L17:
  95:halloween_candle.c ****         int16_t intensity2 = base2 + (variation * 3 / 4);  // Slightly less variation for second LE
 595               		.loc 1 95 17 view .LVU143
 596 00e2 C201      		movw r24,r4
 597 00e4 8858      		subi r24,-120
 598 00e6 9F4F      		sbci r25,-1
  99:halloween_candle.c ****         intensity2 = (intensity2 < 0) ? 0 : ((intensity2 > 255) ? 255 : intensity2);
 599               		.loc 1 99 43 view .LVU144
 600 00e8 8F3F      		cpi r24,-1
 601 00ea 9105      		cpc r25,__zero_reg__
 602 00ec 01F0      		breq .L18
 603 00ee 04F0      		brlt .L18
 604 00f0 8FEF      		ldi r24,lo8(-1)
 605 00f2 90E0      		ldi r25,0
 606               	.L18:
 102:halloween_candle.c ****         
 607               		.loc 1 102 9 view .LVU145
 608 00f4 97FD      		sbrc r25,7
 609 00f6 80E0      		ldi r24,0
 610               	.L19:
 611               	.LVL38:
 612               	.LBB34:
 613               	.LBI34:
  41:halloween_candle.c ****     OCR0A = led1;
 614               		.loc 1 41 6 is_stmt 1 view .LVU146
 615               	.LBB35:
  42:halloween_candle.c ****     OCR1B = led2;
 616               		.loc 1 42 5 view .LVU147
  42:halloween_candle.c ****     OCR1B = led2;
 617               		.loc 1 42 11 is_stmt 0 view .LVU148
 618 00f8 89BD      		out 0x29,r24
  43:halloween_candle.c **** }
 619               		.loc 1 43 5 is_stmt 1 view .LVU149
  43:halloween_candle.c **** }
 620               		.loc 1 43 11 is_stmt 0 view .LVU150
 621 00fa 2BBD      		out 0x2b,r18
 622               	.LVL39:
  43:halloween_candle.c **** }
 623               		.loc 1 43 11 view .LVU151
 624               	.LBE35:
GAS LISTING /var/folders/sh/lj4855x88xqgpw006s7bny180000gn/T//ccZ3NiRc.s 			page 22


 625               	.LBE34:
 104:halloween_candle.c ****     }
 626               		.loc 1 104 9 is_stmt 1 view .LVU152
 104:halloween_candle.c ****     }
 627               		.loc 1 104 31 is_stmt 0 view .LVU153
 628 00fc 00D0      		rcall rand
 629               	.LVL40:
 104:halloween_candle.c ****     }
 630               		.loc 1 104 38 view .LVU154
 631 00fe B501      		movw r22,r10
 632 0100 00D0      		rcall __divmodhi4
 104:halloween_candle.c ****     }
 633               		.loc 1 104 9 view .LVU155
 634 0102 4496      		adiw r24,20
 635 0104 00D0      		rcall custom_delay_ms
 636               	.LVL41:
 637               	.LBE37:
  80:halloween_candle.c ****         // Slowly vary the flicker strength
 638               		.loc 1 80 40 is_stmt 1 view .LVU156
  80:halloween_candle.c ****         // Slowly vary the flicker strength
 639               		.loc 1 80 41 is_stmt 0 view .LVU157
 640 0106 2196      		adiw r28,1
 641               	.LVL42:
  80:halloween_candle.c ****         // Slowly vary the flicker strength
 642               		.loc 1 80 41 view .LVU158
 643 0108 00C0      		rjmp .L12
 644               	.LBE39:
 645               		.cfi_endproc
 646               	.LFE19:
 647               		.size	enhanced_candle, .-enhanced_candle
 648               		.section	.text.distant_storm,"ax",@progbits
 649               	.global	distant_storm
 650               		.type	distant_storm, @function
 651               	distant_storm:
 652               	.LVL43:
 653               	.LFB20:
 107:halloween_candle.c **** 
 108:halloween_candle.c **** void distant_storm(uint16_t duration) {
 654               		.loc 1 108 39 is_stmt 1 view -0
 655               		.cfi_startproc
 656               		.loc 1 108 39 is_stmt 0 view .LVU160
 657 0000 5F92      		push r5
 658               		.cfi_def_cfa_offset 3
 659               		.cfi_offset 5, -2
 660 0002 6F92      		push r6
 661               		.cfi_def_cfa_offset 4
 662               		.cfi_offset 6, -3
 663 0004 7F92      		push r7
 664               		.cfi_def_cfa_offset 5
 665               		.cfi_offset 7, -4
 666 0006 8F92      		push r8
 667               		.cfi_def_cfa_offset 6
 668               		.cfi_offset 8, -5
 669 0008 9F92      		push r9
 670               		.cfi_def_cfa_offset 7
 671               		.cfi_offset 9, -6
 672 000a AF92      		push r10
GAS LISTING /var/folders/sh/lj4855x88xqgpw006s7bny180000gn/T//ccZ3NiRc.s 			page 23


 673               		.cfi_def_cfa_offset 8
 674               		.cfi_offset 10, -7
 675 000c BF92      		push r11
 676               		.cfi_def_cfa_offset 9
 677               		.cfi_offset 11, -8
 678 000e CF92      		push r12
 679               		.cfi_def_cfa_offset 10
 680               		.cfi_offset 12, -9
 681 0010 DF92      		push r13
 682               		.cfi_def_cfa_offset 11
 683               		.cfi_offset 13, -10
 684 0012 EF92      		push r14
 685               		.cfi_def_cfa_offset 12
 686               		.cfi_offset 14, -11
 687 0014 FF92      		push r15
 688               		.cfi_def_cfa_offset 13
 689               		.cfi_offset 15, -12
 690 0016 0F93      		push r16
 691               		.cfi_def_cfa_offset 14
 692               		.cfi_offset 16, -13
 693 0018 1F93      		push r17
 694               		.cfi_def_cfa_offset 15
 695               		.cfi_offset 17, -14
 696 001a CF93      		push r28
 697               		.cfi_def_cfa_offset 16
 698               		.cfi_offset 28, -15
 699 001c DF93      		push r29
 700               		.cfi_def_cfa_offset 17
 701               		.cfi_offset 29, -16
 702               	/* prologue: function */
 703               	/* frame size = 0 */
 704               	/* stack size = 15 */
 705               	.L__stack_usage = 15
 706 001e 4C01      		movw r8,r24
 109:halloween_candle.c ****     uint8_t base_intensity = 50;
 707               		.loc 1 109 5 is_stmt 1 view .LVU161
 708               	.LVL44:
 110:halloween_candle.c ****     uint8_t flash_countdown = rand() % 20;
 709               		.loc 1 110 5 view .LVU162
 710               		.loc 1 110 31 is_stmt 0 view .LVU163
 711 0020 00D0      		rcall rand
 712               	.LVL45:
 713               		.loc 1 110 38 view .LVU164
 714 0022 64E1      		ldi r22,lo8(20)
 715 0024 70E0      		ldi r23,0
 716 0026 00D0      		rcall __divmodhi4
 717               		.loc 1 110 13 view .LVU165
 718 0028 782E      		mov r7,r24
 719               	.LVL46:
 111:halloween_candle.c ****     
 112:halloween_candle.c ****     for (uint16_t i = 0; i < duration; i++) {
 720               		.loc 1 112 5 is_stmt 1 view .LVU166
 721               	.LBB40:
 722               		.loc 1 112 10 view .LVU167
 723               		.loc 1 112 19 is_stmt 0 view .LVU168
 724 002a D0E0      		ldi r29,0
 725 002c C0E0      		ldi r28,0
GAS LISTING /var/folders/sh/lj4855x88xqgpw006s7bny180000gn/T//ccZ3NiRc.s 			page 24


 726               	.LBB41:
 727               	.LBB42:
 113:halloween_candle.c ****         uint8_t brightness1, brightness2;
 114:halloween_candle.c ****         
 115:halloween_candle.c ****         if (flash_countdown == 0) {
 116:halloween_candle.c ****             brightness1 = base_intensity + (rand() % 150);  // Varying flash intensity
 117:halloween_candle.c ****             brightness2 = brightness1 - (rand() % 31);  // Slightly dimmer flash
 118:halloween_candle.c ****             flash_countdown = rand() % 20 + 10;
 119:halloween_candle.c ****         } else {
 120:halloween_candle.c ****             int8_t variation = (rand() % 21) - 10;  // -10 to +10
 728               		.loc 1 120 40 view .LVU169
 729 002e 05E1      		ldi r16,lo8(21)
 730 0030 10E0      		ldi r17,0
 731               	.LBE42:
 116:halloween_candle.c ****             brightness2 = brightness1 - (rand() % 31);  // Slightly dimmer flash
 732               		.loc 1 116 52 view .LVU170
 733 0032 46E9      		ldi r20,lo8(-106)
 734 0034 E42E      		mov r14,r20
 735 0036 F12C      		mov r15,__zero_reg__
 117:halloween_candle.c ****             flash_countdown = rand() % 20 + 10;
 736               		.loc 1 117 49 view .LVU171
 737 0038 5FE1      		ldi r21,lo8(31)
 738 003a C52E      		mov r12,r21
 739 003c D12C      		mov r13,__zero_reg__
 118:halloween_candle.c ****         } else {
 740               		.loc 1 118 38 view .LVU172
 741 003e 64E1      		ldi r22,lo8(20)
 742 0040 A62E      		mov r10,r22
 743 0042 B12C      		mov r11,__zero_reg__
 744               	.LVL47:
 745               	.L22:
 118:halloween_candle.c ****         } else {
 746               		.loc 1 118 38 view .LVU173
 747               	.LBE41:
 112:halloween_candle.c ****         uint8_t brightness1, brightness2;
 748               		.loc 1 112 26 is_stmt 1 discriminator 1 view .LVU174
 112:halloween_candle.c ****         uint8_t brightness1, brightness2;
 749               		.loc 1 112 5 is_stmt 0 discriminator 1 view .LVU175
 750 0044 C815      		cp r28,r8
 751 0046 D905      		cpc r29,r9
 752 0048 01F4      		brne .L26
 753               	/* epilogue start */
 754               	.LBE40:
 121:halloween_candle.c ****             brightness1 = base_intensity + variation;
 122:halloween_candle.c ****             brightness2 = base_intensity + (variation / 2);  // Subtle difference
 123:halloween_candle.c ****             flash_countdown--;
 124:halloween_candle.c ****         }
 125:halloween_candle.c ****         
 126:halloween_candle.c ****         set_led_brightness(brightness1, brightness2);
 127:halloween_candle.c ****         custom_delay_ms(100);
 128:halloween_candle.c ****     }
 129:halloween_candle.c **** }...
 755               		.loc 1 129 1 view .LVU176
 756 004a DF91      		pop r29
 757 004c CF91      		pop r28
 758               	.LVL48:
 759               		.loc 1 129 1 view .LVU177
GAS LISTING /var/folders/sh/lj4855x88xqgpw006s7bny180000gn/T//ccZ3NiRc.s 			page 25


 760 004e 1F91      		pop r17
 761 0050 0F91      		pop r16
 762 0052 FF90      		pop r15
 763 0054 EF90      		pop r14
 764 0056 DF90      		pop r13
 765 0058 CF90      		pop r12
 766 005a BF90      		pop r11
 767 005c AF90      		pop r10
 768 005e 9F90      		pop r9
 769 0060 8F90      		pop r8
 770               	.LVL49:
 771               		.loc 1 129 1 view .LVU178
 772 0062 7F90      		pop r7
 773               	.LVL50:
 774               		.loc 1 129 1 view .LVU179
 775 0064 6F90      		pop r6
 776 0066 5F90      		pop r5
 777 0068 0895      		ret
 778               	.LVL51:
 779               	.L26:
 780               	.LBB48:
 781               	.LBB46:
 113:halloween_candle.c ****         uint8_t brightness1, brightness2;
 782               		.loc 1 113 9 is_stmt 1 view .LVU180
 115:halloween_candle.c ****         if (flash_countdown == 0) {
 783               		.loc 1 115 9 view .LVU181
 115:halloween_candle.c ****         if (flash_countdown == 0) {
 784               		.loc 1 115 12 is_stmt 0 view .LVU182
 785 006a 7110      		cpse r7,__zero_reg__
 786 006c 00C0      		rjmp .L23
 116:halloween_candle.c ****             brightness1 = base_intensity + (rand() % 150);  // Varying flash intensity
 787               		.loc 1 116 13 is_stmt 1 view .LVU183
 116:halloween_candle.c ****             brightness1 = base_intensity + (rand() % 150);  // Varying flash intensity
 788               		.loc 1 116 45 is_stmt 0 view .LVU184
 789 006e 00D0      		rcall rand
 790               	.LVL52:
 116:halloween_candle.c ****             brightness1 = base_intensity + (rand() % 150);  // Varying flash intensity
 791               		.loc 1 116 52 view .LVU185
 792 0070 B701      		movw r22,r14
 793 0072 00D0      		rcall __divmodhi4
 116:halloween_candle.c ****             brightness1 = base_intensity + (rand() % 150);  // Varying flash intensity
 794               		.loc 1 116 25 view .LVU186
 795 0074 22E3      		ldi r18,lo8(50)
 796 0076 522E      		mov r5,r18
 797 0078 580E      		add r5,r24
 798               	.LVL53:
 117:halloween_candle.c ****             brightness2 = brightness1 - (rand() % 31);  // Slightly dimmer flash
 799               		.loc 1 117 13 is_stmt 1 view .LVU187
 117:halloween_candle.c ****             brightness2 = brightness1 - (rand() % 31);  // Slightly dimmer flash
 800               		.loc 1 117 42 is_stmt 0 view .LVU188
 801 007a 00D0      		rcall rand
 802               	.LVL54:
 117:halloween_candle.c ****             brightness2 = brightness1 - (rand() % 31);  // Slightly dimmer flash
 803               		.loc 1 117 49 view .LVU189
 804 007c B601      		movw r22,r12
 805 007e 00D0      		rcall __divmodhi4
 117:halloween_candle.c ****             brightness2 = brightness1 - (rand() % 31);  // Slightly dimmer flash
GAS LISTING /var/folders/sh/lj4855x88xqgpw006s7bny180000gn/T//ccZ3NiRc.s 			page 26


 806               		.loc 1 117 25 view .LVU190
 807 0080 652C      		mov r6,r5
 808 0082 681A      		sub r6,r24
 809               	.LVL55:
 118:halloween_candle.c ****             flash_countdown = rand() % 20 + 10;
 810               		.loc 1 118 13 is_stmt 1 view .LVU191
 118:halloween_candle.c ****             flash_countdown = rand() % 20 + 10;
 811               		.loc 1 118 31 is_stmt 0 view .LVU192
 812 0084 00D0      		rcall rand
 813               	.LVL56:
 118:halloween_candle.c ****             flash_countdown = rand() % 20 + 10;
 814               		.loc 1 118 38 view .LVU193
 815 0086 B501      		movw r22,r10
 816 0088 00D0      		rcall __divmodhi4
 118:halloween_candle.c ****             flash_countdown = rand() % 20 + 10;
 817               		.loc 1 118 29 view .LVU194
 818 008a 3AE0      		ldi r19,lo8(10)
 819 008c 732E      		mov r7,r19
 820               	.LVL57:
 118:halloween_candle.c ****             flash_countdown = rand() % 20 + 10;
 821               		.loc 1 118 29 view .LVU195
 822 008e 780E      		add r7,r24
 823               	.LVL58:
 824               	.L24:
 126:halloween_candle.c ****         set_led_brightness(brightness1, brightness2);
 825               		.loc 1 126 9 is_stmt 1 discriminator 2 view .LVU196
 826               	.LBB43:
 827               	.LBI43:
  41:halloween_candle.c **** void set_led_brightness(uint8_t led1, uint8_t led2) {
 828               		.loc 1 41 6 discriminator 2 view .LVU197
 829               	.LBB44:
  42:halloween_candle.c ****     OCR0A = led1;
 830               		.loc 1 42 5 discriminator 2 view .LVU198
  42:halloween_candle.c ****     OCR0A = led1;
 831               		.loc 1 42 11 is_stmt 0 discriminator 2 view .LVU199
 832 0090 59BC      		out 0x29,r5
  43:halloween_candle.c ****     OCR1B = led2;
 833               		.loc 1 43 5 is_stmt 1 discriminator 2 view .LVU200
  43:halloween_candle.c ****     OCR1B = led2;
 834               		.loc 1 43 11 is_stmt 0 discriminator 2 view .LVU201
 835 0092 6BBC      		out 0x2b,r6
 836               	.LVL59:
  43:halloween_candle.c ****     OCR1B = led2;
 837               		.loc 1 43 11 discriminator 2 view .LVU202
 838               	.LBE44:
 839               	.LBE43:
 127:halloween_candle.c ****         custom_delay_ms(100);
 840               		.loc 1 127 9 is_stmt 1 discriminator 2 view .LVU203
 841 0094 84E6      		ldi r24,lo8(100)
 842 0096 90E0      		ldi r25,0
 843 0098 00D0      		rcall custom_delay_ms
 844               	.LVL60:
 845               	.LBE46:
 112:halloween_candle.c ****     for (uint16_t i = 0; i < duration; i++) {
 846               		.loc 1 112 40 discriminator 2 view .LVU204
 112:halloween_candle.c ****     for (uint16_t i = 0; i < duration; i++) {
 847               		.loc 1 112 41 is_stmt 0 discriminator 2 view .LVU205
GAS LISTING /var/folders/sh/lj4855x88xqgpw006s7bny180000gn/T//ccZ3NiRc.s 			page 27


 848 009a 2196      		adiw r28,1
 849               	.LVL61:
 112:halloween_candle.c ****     for (uint16_t i = 0; i < duration; i++) {
 850               		.loc 1 112 41 discriminator 2 view .LVU206
 851 009c 00C0      		rjmp .L22
 852               	.LVL62:
 853               	.L23:
 854               	.LBB47:
 855               	.LBB45:
 120:halloween_candle.c ****             int8_t variation = (rand() % 21) - 10;  // -10 to +10
 856               		.loc 1 120 13 is_stmt 1 view .LVU207
 120:halloween_candle.c ****             int8_t variation = (rand() % 21) - 10;  // -10 to +10
 857               		.loc 1 120 33 is_stmt 0 view .LVU208
 858 009e 00D0      		rcall rand
 859               	.LVL63:
 120:halloween_candle.c ****             int8_t variation = (rand() % 21) - 10;  // -10 to +10
 860               		.loc 1 120 40 view .LVU209
 861 00a0 B801      		movw r22,r16
 862 00a2 00D0      		rcall __divmodhi4
 863               	.LVL64:
 121:halloween_candle.c ****             brightness1 = base_intensity + variation;
 864               		.loc 1 121 13 is_stmt 1 view .LVU210
 121:halloween_candle.c ****             brightness1 = base_intensity + variation;
 865               		.loc 1 121 25 is_stmt 0 view .LVU211
 866 00a4 98E2      		ldi r25,lo8(40)
 867 00a6 592E      		mov r5,r25
 868 00a8 580E      		add r5,r24
 869               	.LVL65:
 122:halloween_candle.c ****             brightness2 = base_intensity + (variation / 2);  // Subtle difference
 870               		.loc 1 122 13 is_stmt 1 view .LVU212
 120:halloween_candle.c ****             int8_t variation = (rand() % 21) - 10;  // -10 to +10
 871               		.loc 1 120 46 is_stmt 0 view .LVU213
 872 00aa 96EF      		ldi r25,lo8(-10)
 873 00ac 980F      		add r25,r24
 874               	.LVL66:
 122:halloween_candle.c ****             brightness2 = base_intensity + (variation / 2);  // Subtle difference
 875               		.loc 1 122 42 view .LVU214
 876 00ae 97FF      		sbrs r25,7
 877 00b0 00C0      		rjmp .L25
 878 00b2 97EF      		ldi r25,lo8(-9)
 879               	.LVL67:
 122:halloween_candle.c ****             brightness2 = base_intensity + (variation / 2);  // Subtle difference
 880               		.loc 1 122 42 view .LVU215
 881 00b4 980F      		add r25,r24
 882               	.L25:
 883 00b6 9595      		asr r25
 122:halloween_candle.c ****             brightness2 = base_intensity + (variation / 2);  // Subtle difference
 884               		.loc 1 122 25 view .LVU216
 885 00b8 82E3      		ldi r24,lo8(50)
 886 00ba 682E      		mov r6,r24
 887               	.LVL68:
 122:halloween_candle.c ****             brightness2 = base_intensity + (variation / 2);  // Subtle difference
 888               		.loc 1 122 25 view .LVU217
 889 00bc 690E      		add r6,r25
 890               	.LVL69:
 123:halloween_candle.c ****             flash_countdown--;
 891               		.loc 1 123 13 is_stmt 1 view .LVU218
GAS LISTING /var/folders/sh/lj4855x88xqgpw006s7bny180000gn/T//ccZ3NiRc.s 			page 28


 123:halloween_candle.c ****             flash_countdown--;
 892               		.loc 1 123 28 is_stmt 0 view .LVU219
 893 00be 7A94      		dec r7
 894               	.LVL70:
 123:halloween_candle.c ****             flash_countdown--;
 895               		.loc 1 123 28 view .LVU220
 896 00c0 00C0      		rjmp .L24
 897               	.LBE45:
 898               	.LBE47:
 899               	.LBE48:
 900               		.cfi_endproc
 901               	.LFE20:
 902               		.size	distant_storm, .-distant_storm
 903               		.section	.text.startup.main,"ax",@progbits
 904               	.global	main
 905               		.type	main, @function
 906               	main:
 907               	.LFB14:
  17:halloween_candle.c **** int main(void) {
 908               		.loc 1 17 16 is_stmt 1 view -0
 909               		.cfi_startproc
 910               	/* prologue: function */
 911               	/* frame size = 0 */
 912               	/* stack size = 0 */
 913               	.L__stack_usage = 0
  18:halloween_candle.c ****     setup();
 914               		.loc 1 18 5 view .LVU222
 915 0000 00D0      		rcall setup
 916               	.LVL71:
  23:halloween_candle.c ****     distant_storm(1000);     // 5 seconds
 917               		.loc 1 23 5 view .LVU223
 918 0002 88EE      		ldi r24,lo8(-24)
 919 0004 93E0      		ldi r25,lo8(3)
 920               	.L29:
 921 0006 00D0      		rcall distant_storm
 922               	.LVL72:
  26:halloween_candle.c ****     while (1) {
 923               		.loc 1 26 5 view .LVU224
  27:halloween_candle.c ****         gentle_flicker(3000);   // 5 minutes (3000 * 100ms = 300000ms = 5 minutes)
 924               		.loc 1 27 9 view .LVU225
 925 0008 88EB      		ldi r24,lo8(-72)
 926 000a 9BE0      		ldi r25,lo8(11)
 927 000c 00D0      		rcall gentle_flicker
 928               	.LVL73:
  28:halloween_candle.c ****         enhanced_candle(600);  // 5 minutes
 929               		.loc 1 28 9 view .LVU226
 930 000e 88E5      		ldi r24,lo8(88)
 931 0010 92E0      		ldi r25,lo8(2)
 932 0012 00D0      		rcall enhanced_candle
 933               	.LVL74:
  29:halloween_candle.c ****         distant_storm(3000);    // 5 minutes
 934               		.loc 1 29 9 view .LVU227
 935 0014 88EB      		ldi r24,lo8(-72)
 936 0016 9BE0      		ldi r25,lo8(11)
 937 0018 00C0      		rjmp .L29
 938               		.cfi_endproc
 939               	.LFE14:
GAS LISTING /var/folders/sh/lj4855x88xqgpw006s7bny180000gn/T//ccZ3NiRc.s 			page 29


 940               		.size	main, .-main
 941               		.text
 942               	.Letext0:
 943               		.file 4 "/usr/local/Cellar/avr-gcc@9/9.4.0_1/avr/include/stdint.h"
 944               		.file 5 "/usr/local/Cellar/avr-gcc@9/9.4.0_1/lib/avr-gcc/9/gcc/avr/9.4.0/include/stddef.h"
 945               		.file 6 "/usr/local/Cellar/avr-gcc@9/9.4.0_1/avr/include/stdlib.h"